

Microchip MPLAB XC8 Assembler V3.00 build 20241204225717 
                                                                                               Sun Jun 29 11:06:12 2025

Microchip MPLAB XC8 C Compiler v3.00 (Free license) build 20241204225717 Og1 
     1                           	processor	16F1455
     2                           	pagewidth 120
     3                           	opt	flic
     4                           	psect	idataBANK0,global,class=CODE,space=0,delta=2,noexec
     5                           	psect	stringtext1,global,class=STRCODE,space=0,delta=2,noexec
     6                           	psect	stringtext2,global,class=STRCODE,space=0,delta=2,noexec
     7                           	psect	stringtext3,global,class=STRCODE,space=0,delta=2,noexec
     8                           	psect	stringtext4,global,class=STRCODE,space=0,delta=2,noexec
     9                           	psect	stringtext5,global,class=STRCODE,space=0,delta=2,noexec
    10                           	psect	stringtext6,global,class=STRCODE,space=0,delta=2,noexec
    11                           	psect	stringtext7,global,class=STRCODE,space=0,delta=2,noexec
    12                           	psect	cinit,global,class=CODE,space=0,merge=1,delta=2
    13                           	psect	bssCOMMON,global,class=COMMON,space=1,delta=1,noexec
    14                           	psect	bssBANK0,global,class=BANK0,space=1,delta=1,noexec
    15                           	psect	dataBANK0,global,class=BANK0,space=1,delta=1,noexec
    16                           	psect	clrtext,global,class=CODE,space=0,delta=2
    17                           	psect	cstackCOMMON,global,class=COMMON,space=1,delta=1,noexec
    18                           	psect	cstackBANK0,global,class=BANK0,space=1,delta=1,noexec
    19                           	psect	maintext,global,class=CODE,space=0,merge=1,split=1,delta=2
    20                           	psect	text1,local,class=CODE,space=0,merge=1,delta=2
    21                           	psect	text2,local,class=CODE,space=0,merge=1,delta=2
    22                           	psect	text3,local,class=CODE,space=0,merge=1,delta=2
    23                           	psect	text4,local,class=CODE,space=0,merge=1,delta=2
    24                           	psect	text5,local,class=CODE,space=0,merge=1,delta=2
    25                           	psect	text6,local,class=CODE,space=0,merge=1,delta=2,group=1
    26                           	psect	text7,local,class=CODE,space=0,merge=1,delta=2
    27                           	psect	text8,local,class=CODE,space=0,merge=1,delta=2
    28                           	psect	text9,local,class=CODE,space=0,merge=1,delta=2
    29                           	psect	text10,local,class=CODE,space=0,merge=1,delta=2
    30                           	psect	text11,local,class=CODE,space=0,merge=1,delta=2
    31                           	psect	text12,local,class=CODE,space=0,merge=1,delta=2
    32                           	psect	text13,local,class=CODE,space=0,merge=1,delta=2
    33                           	psect	intentry,global,class=CODE,space=0,delta=2
    34                           	psect	text15,local,class=CODE,space=0,merge=1,delta=2
    35                           	psect	text16,local,class=CODE,space=0,merge=1,delta=2
    36                           	psect	text17,local,class=CODE,space=0,merge=1,delta=2
    37                           	psect	text18,local,class=CODE,space=0,merge=1,delta=2
    38                           	psect	text19,local,class=CODE,space=0,merge=1,delta=2
    39                           	psect	text20,local,class=CODE,space=0,merge=1,delta=2
    40                           	psect	text21,local,class=CODE,space=0,merge=1,delta=2
    41                           	psect	text22,local,class=CODE,space=0,merge=1,delta=2
    42                           	psect	text23,local,class=CODE,space=0,merge=1,delta=2
    43                           	psect	text24,local,class=CODE,space=0,merge=1,delta=2
    44                           	psect	text25,local,class=CODE,space=0,merge=1,delta=2
    45                           	psect	text26,local,class=CODE,space=0,merge=1,delta=2
    46                           	psect	text27,local,class=CODE,space=0,merge=1,delta=2
    47                           	psect	text28,local,class=CODE,space=0,merge=1,delta=2
    48                           	psect	text29,local,class=CODE,space=0,merge=1,delta=2
    49                           	psect	text30,local,class=CODE,space=0,merge=1,delta=2
    50                           	psect	text31,local,class=CODE,space=0,merge=1,delta=2
    51                           	psect	text32,local,class=CODE,space=0,merge=1,delta=2
    52                           	psect	config,global,abs,ovrld,class=CONFIG,space=4,delta=2,noexec
    53                           	dabs	1,0x20,16,_Interfaces
    54                           	dabs	1,0x7E,2
    55     0000                     
    56                           ; Generated 07/09/2023 GMT
    57                           ; 
    58                           ; Copyright © 2023, Microchip Technology Inc. and its subsidiaries ("Microchip")
    59                           ; All rights reserved.
    60                           ; 
    61                           ; This software is developed by Microchip Technology Inc. and its subsidiaries ("Microch
      +                          ip").
    62                           ; 
    63                           ; Redistribution and use in source and binary forms, with or without modification, are
    64                           ; permitted provided that the following conditions are met:
    65                           ; 
    66                           ;     1. Redistributions of source code must retain the above copyright notice, this lis
      +                          t of
    67                           ;        conditions and the following disclaimer.
    68                           ; 
    69                           ;     2. Redistributions in binary form must reproduce the above copyright notice, this 
      +                          list
    70                           ;        of conditions and the following disclaimer in the documentation and/or other
    71                           ;        materials provided with the distribution. Publication is not required when
    72                           ;        this file is used in an embedded application.
    73                           ; 
    74                           ;     3. Microchip's name may not be used to endorse or promote products derived from th
      +                          is
    75                           ;        software without specific prior written permission.
    76                           ; 
    77                           ; THIS SOFTWARE IS PROVIDED BY MICROCHIP "AS IS" AND ANY EXPRESS OR IMPLIED WARRANTIES,
    78                           ; INCLUDING, BUT NOT LIMITED TO, THE IMPLIED WARRANTIES OF MERCHANTABILITY AND FITNESS F
      +                          OR
    79                           ; PURPOSE ARE DISCLAIMED.  IN NO EVENT SHALL MICROCHIP BE LIABLE FOR ANY DIRECT, INDIREC
      +                          T,
    80                           ; INCIDENTAL, SPECIAL, EXEMPLARY, OR CONSEQUENTIAL DAMAGES (INCLUDING BUT NOT LIMITED TO
    81                           ; PROCUREMENT OF SUBSTITUTE GOODS OR SERVICES; LOSS OF USE, DATA OR PROFITS; OR BUSINESS
    82                           ; INTERRUPTION) HOWSOEVER CAUSED AND ON ANY THEORY OF LIABILITY, WHETHER IN CONTRACT, ST
      +                          RICT
    83                           ; LIABILITY, OR TORT (INCLUDING NEGLIGENCE OR OTHERWISE) ARISING IN ANY WAY OUT OF THE U
      +                          SE OF
    84                           ; THIS SOFTWARE, EVEN IF ADVISED OF THE POSSIBILITY OF SUCH DAMAGE.
    85                           ; 
    86                           ; 
    87                           ; Code-generator required, PIC16F1455 Definitions
    88                           ; 
    89                           ; SFR Addresses
    90     0008                     bsr             equ	8
    91     0005                     fsr0h           equ	5
    92     0004                     fsr0l           equ	4
    93     0007                     fsr1h           equ	7
    94     0006                     fsr1l           equ	6
    95     0000                     indf            equ	0
    96     0000                     indf0           equ	0
    97     0001                     indf1           equ	1
    98     000B                     intcon          equ	11
    99     0002                     pc              equ	2
   100     0002                     pcl             equ	2
   101     000A                     pclath          equ	10
   102     0003                     status          equ	3
   103     0009                     wreg            equ	9
   104     0000                     INDF0           equ	0	;# 
   105     0001                     INDF1           equ	1	;# 
   106     0002                     PCL             equ	2	;# 
   107     0003                     STATUS          equ	3	;# 
   108     0004                     FSR0L           equ	4	;# 
   109     0005                     FSR0H           equ	5	;# 
   110     0006                     FSR1L           equ	6	;# 
   111     0007                     FSR1H           equ	7	;# 
   112     0008                     BSR             equ	8	;# 
   113     0009                     WREG            equ	9	;# 
   114     000A                     PCLATH          equ	10	;# 
   115     000B                     INTCON          equ	11	;# 
   116     000C                     PORTA           equ	12	;# 
   117     000E                     PORTC           equ	14	;# 
   118     0011                     PIR1            equ	17	;# 
   119     0012                     PIR2            equ	18	;# 
   120     0015                     TMR0            equ	21	;# 
   121     0016                     TMR1            equ	22	;# 
   122     0016                     TMR1L           equ	22	;# 
   123     0017                     TMR1H           equ	23	;# 
   124     0018                     T1CON           equ	24	;# 
   125     0019                     T1GCON          equ	25	;# 
   126     001A                     TMR2            equ	26	;# 
   127     001B                     PR2             equ	27	;# 
   128     001C                     T2CON           equ	28	;# 
   129     008C                     TRISA           equ	140	;# 
   130     008E                     TRISC           equ	142	;# 
   131     0091                     PIE1            equ	145	;# 
   132     0092                     PIE2            equ	146	;# 
   133     0095                     OPTION_REG      equ	149	;# 
   134     0096                     PCON            equ	150	;# 
   135     0097                     WDTCON          equ	151	;# 
   136     0098                     OSCTUNE         equ	152	;# 
   137     0099                     OSCCON          equ	153	;# 
   138     009A                     OSCSTAT         equ	154	;# 
   139     009B                     ADRES           equ	155	;# 
   140     009B                     ADRESL          equ	155	;# 
   141     009C                     ADRESH          equ	156	;# 
   142     009D                     ADCON0          equ	157	;# 
   143     009E                     ADCON1          equ	158	;# 
   144     009F                     ADCON2          equ	159	;# 
   145     010C                     LATA            equ	268	;# 
   146     010E                     LATC            equ	270	;# 
   147     0111                     CM1CON0         equ	273	;# 
   148     0112                     CM1CON1         equ	274	;# 
   149     0113                     CM2CON0         equ	275	;# 
   150     0114                     CM2CON1         equ	276	;# 
   151     0115                     CMOUT           equ	277	;# 
   152     0116                     BORCON          equ	278	;# 
   153     0117                     FVRCON          equ	279	;# 
   154     0118                     DACCON0         equ	280	;# 
   155     0119                     DACCON1         equ	281	;# 
   156     011D                     APFCON          equ	285	;# 
   157     018C                     ANSELA          equ	396	;# 
   158     018E                     ANSELC          equ	398	;# 
   159     0191                     PMADR           equ	401	;# 
   160     0191                     PMADRL          equ	401	;# 
   161     0192                     PMADRH          equ	402	;# 
   162     0193                     PMDAT           equ	403	;# 
   163     0193                     PMDATL          equ	403	;# 
   164     0194                     PMDATH          equ	404	;# 
   165     0195                     PMCON1          equ	405	;# 
   166     0196                     PMCON2          equ	406	;# 
   167     0197                     VREGCON         equ	407	;# 
   168     0199                     RCREG           equ	409	;# 
   169     019A                     TXREG           equ	410	;# 
   170     019B                     SPBRG           equ	411	;# 
   171     019B                     SPBRGL          equ	411	;# 
   172     019C                     SPBRGH          equ	412	;# 
   173     019D                     RCSTA           equ	413	;# 
   174     019E                     TXSTA           equ	414	;# 
   175     019F                     BAUDCON         equ	415	;# 
   176     020C                     WPUA            equ	524	;# 
   177     0211                     SSP1BUF         equ	529	;# 
   178     0211                     SSPBUF          equ	529	;# 
   179     0212                     SSP1ADD         equ	530	;# 
   180     0212                     SSPADD          equ	530	;# 
   181     0213                     SSP1MSK         equ	531	;# 
   182     0213                     SSPMSK          equ	531	;# 
   183     0214                     SSP1STAT        equ	532	;# 
   184     0214                     SSPSTAT         equ	532	;# 
   185     0215                     SSP1CON1        equ	533	;# 
   186     0215                     SSPCON          equ	533	;# 
   187     0215                     SSPCON1         equ	533	;# 
   188     0216                     SSP1CON2        equ	534	;# 
   189     0216                     SSPCON2         equ	534	;# 
   190     0217                     SSP1CON3        equ	535	;# 
   191     0217                     SSPCON3         equ	535	;# 
   192     0391                     IOCAP           equ	913	;# 
   193     0392                     IOCAN           equ	914	;# 
   194     0393                     IOCAF           equ	915	;# 
   195     039A                     CLKRCON         equ	922	;# 
   196     039B                     ACTCON          equ	923	;# 
   197     0611                     PWM1DCL         equ	1553	;# 
   198     0612                     PWM1DCH         equ	1554	;# 
   199     0613                     PWM1CON         equ	1555	;# 
   200     0613                     PWM1CON0        equ	1555	;# 
   201     0614                     PWM2DCL         equ	1556	;# 
   202     0615                     PWM2DCH         equ	1557	;# 
   203     0616                     PWM2CON         equ	1558	;# 
   204     0616                     PWM2CON0        equ	1558	;# 
   205     0691                     CWG1DBR         equ	1681	;# 
   206     0692                     CWG1DBF         equ	1682	;# 
   207     0693                     CWG1CON0        equ	1683	;# 
   208     0694                     CWG1CON1        equ	1684	;# 
   209     0695                     CWG1CON2        equ	1685	;# 
   210     0E8E                     UCON            equ	3726	;# 
   211     0E8F                     USTAT           equ	3727	;# 
   212     0E90                     UIR             equ	3728	;# 
   213     0E91                     UCFG            equ	3729	;# 
   214     0E92                     UIE             equ	3730	;# 
   215     0E93                     UEIR            equ	3731	;# 
   216     0E94                     UFRM            equ	3732	;# 
   217     0E94                     UFRMH           equ	3732	;# 
   218     0E95                     UFRML           equ	3733	;# 
   219     0E96                     UADDR           equ	3734	;# 
   220     0E97                     UEIE            equ	3735	;# 
   221     0E98                     UEP0            equ	3736	;# 
   222     0E99                     UEP1            equ	3737	;# 
   223     0E9A                     UEP2            equ	3738	;# 
   224     0E9B                     UEP3            equ	3739	;# 
   225     0E9C                     UEP4            equ	3740	;# 
   226     0E9D                     UEP5            equ	3741	;# 
   227     0E9E                     UEP6            equ	3742	;# 
   228     0E9F                     UEP7            equ	3743	;# 
   229     0FE4                     STATUS_SHAD     equ	4068	;# 
   230     0FE5                     WREG_SHAD       equ	4069	;# 
   231     0FE6                     BSR_SHAD        equ	4070	;# 
   232     0FE7                     PCLATH_SHAD     equ	4071	;# 
   233     0FE8                     FSR0L_SHAD      equ	4072	;# 
   234     0FE9                     FSR0H_SHAD      equ	4073	;# 
   235     0FEA                     FSR1L_SHAD      equ	4074	;# 
   236     0FEB                     FSR1H_SHAD      equ	4075	;# 
   237     0FED                     STKPTR          equ	4077	;# 
   238     0FEE                     TOSL            equ	4078	;# 
   239     0FEF                     TOSH            equ	4079	;# 
   240     0000                     INDF0           equ	0	;# 
   241     0001                     INDF1           equ	1	;# 
   242     0002                     PCL             equ	2	;# 
   243     0003                     STATUS          equ	3	;# 
   244     0004                     FSR0L           equ	4	;# 
   245     0005                     FSR0H           equ	5	;# 
   246     0006                     FSR1L           equ	6	;# 
   247     0007                     FSR1H           equ	7	;# 
   248     0008                     BSR             equ	8	;# 
   249     0009                     WREG            equ	9	;# 
   250     000A                     PCLATH          equ	10	;# 
   251     000B                     INTCON          equ	11	;# 
   252     000C                     PORTA           equ	12	;# 
   253     000E                     PORTC           equ	14	;# 
   254     0011                     PIR1            equ	17	;# 
   255     0012                     PIR2            equ	18	;# 
   256     0015                     TMR0            equ	21	;# 
   257     0016                     TMR1            equ	22	;# 
   258     0016                     TMR1L           equ	22	;# 
   259     0017                     TMR1H           equ	23	;# 
   260     0018                     T1CON           equ	24	;# 
   261     0019                     T1GCON          equ	25	;# 
   262     001A                     TMR2            equ	26	;# 
   263     001B                     PR2             equ	27	;# 
   264     001C                     T2CON           equ	28	;# 
   265     008C                     TRISA           equ	140	;# 
   266     008E                     TRISC           equ	142	;# 
   267     0091                     PIE1            equ	145	;# 
   268     0092                     PIE2            equ	146	;# 
   269     0095                     OPTION_REG      equ	149	;# 
   270     0096                     PCON            equ	150	;# 
   271     0097                     WDTCON          equ	151	;# 
   272     0098                     OSCTUNE         equ	152	;# 
   273     0099                     OSCCON          equ	153	;# 
   274     009A                     OSCSTAT         equ	154	;# 
   275     009B                     ADRES           equ	155	;# 
   276     009B                     ADRESL          equ	155	;# 
   277     009C                     ADRESH          equ	156	;# 
   278     009D                     ADCON0          equ	157	;# 
   279     009E                     ADCON1          equ	158	;# 
   280     009F                     ADCON2          equ	159	;# 
   281     010C                     LATA            equ	268	;# 
   282     010E                     LATC            equ	270	;# 
   283     0111                     CM1CON0         equ	273	;# 
   284     0112                     CM1CON1         equ	274	;# 
   285     0113                     CM2CON0         equ	275	;# 
   286     0114                     CM2CON1         equ	276	;# 
   287     0115                     CMOUT           equ	277	;# 
   288     0116                     BORCON          equ	278	;# 
   289     0117                     FVRCON          equ	279	;# 
   290     0118                     DACCON0         equ	280	;# 
   291     0119                     DACCON1         equ	281	;# 
   292     011D                     APFCON          equ	285	;# 
   293     018C                     ANSELA          equ	396	;# 
   294     018E                     ANSELC          equ	398	;# 
   295     0191                     PMADR           equ	401	;# 
   296     0191                     PMADRL          equ	401	;# 
   297     0192                     PMADRH          equ	402	;# 
   298     0193                     PMDAT           equ	403	;# 
   299     0193                     PMDATL          equ	403	;# 
   300     0194                     PMDATH          equ	404	;# 
   301     0195                     PMCON1          equ	405	;# 
   302     0196                     PMCON2          equ	406	;# 
   303     0197                     VREGCON         equ	407	;# 
   304     0199                     RCREG           equ	409	;# 
   305     019A                     TXREG           equ	410	;# 
   306     019B                     SPBRG           equ	411	;# 
   307     019B                     SPBRGL          equ	411	;# 
   308     019C                     SPBRGH          equ	412	;# 
   309     019D                     RCSTA           equ	413	;# 
   310     019E                     TXSTA           equ	414	;# 
   311     019F                     BAUDCON         equ	415	;# 
   312     020C                     WPUA            equ	524	;# 
   313     0211                     SSP1BUF         equ	529	;# 
   314     0211                     SSPBUF          equ	529	;# 
   315     0212                     SSP1ADD         equ	530	;# 
   316     0212                     SSPADD          equ	530	;# 
   317     0213                     SSP1MSK         equ	531	;# 
   318     0213                     SSPMSK          equ	531	;# 
   319     0214                     SSP1STAT        equ	532	;# 
   320     0214                     SSPSTAT         equ	532	;# 
   321     0215                     SSP1CON1        equ	533	;# 
   322     0215                     SSPCON          equ	533	;# 
   323     0215                     SSPCON1         equ	533	;# 
   324     0216                     SSP1CON2        equ	534	;# 
   325     0216                     SSPCON2         equ	534	;# 
   326     0217                     SSP1CON3        equ	535	;# 
   327     0217                     SSPCON3         equ	535	;# 
   328     0391                     IOCAP           equ	913	;# 
   329     0392                     IOCAN           equ	914	;# 
   330     0393                     IOCAF           equ	915	;# 
   331     039A                     CLKRCON         equ	922	;# 
   332     039B                     ACTCON          equ	923	;# 
   333     0611                     PWM1DCL         equ	1553	;# 
   334     0612                     PWM1DCH         equ	1554	;# 
   335     0613                     PWM1CON         equ	1555	;# 
   336     0613                     PWM1CON0        equ	1555	;# 
   337     0614                     PWM2DCL         equ	1556	;# 
   338     0615                     PWM2DCH         equ	1557	;# 
   339     0616                     PWM2CON         equ	1558	;# 
   340     0616                     PWM2CON0        equ	1558	;# 
   341     0691                     CWG1DBR         equ	1681	;# 
   342     0692                     CWG1DBF         equ	1682	;# 
   343     0693                     CWG1CON0        equ	1683	;# 
   344     0694                     CWG1CON1        equ	1684	;# 
   345     0695                     CWG1CON2        equ	1685	;# 
   346     0E8E                     UCON            equ	3726	;# 
   347     0E8F                     USTAT           equ	3727	;# 
   348     0E90                     UIR             equ	3728	;# 
   349     0E91                     UCFG            equ	3729	;# 
   350     0E92                     UIE             equ	3730	;# 
   351     0E93                     UEIR            equ	3731	;# 
   352     0E94                     UFRM            equ	3732	;# 
   353     0E94                     UFRMH           equ	3732	;# 
   354     0E95                     UFRML           equ	3733	;# 
   355     0E96                     UADDR           equ	3734	;# 
   356     0E97                     UEIE            equ	3735	;# 
   357     0E98                     UEP0            equ	3736	;# 
   358     0E99                     UEP1            equ	3737	;# 
   359     0E9A                     UEP2            equ	3738	;# 
   360     0E9B                     UEP3            equ	3739	;# 
   361     0E9C                     UEP4            equ	3740	;# 
   362     0E9D                     UEP5            equ	3741	;# 
   363     0E9E                     UEP6            equ	3742	;# 
   364     0E9F                     UEP7            equ	3743	;# 
   365     0FE4                     STATUS_SHAD     equ	4068	;# 
   366     0FE5                     WREG_SHAD       equ	4069	;# 
   367     0FE6                     BSR_SHAD        equ	4070	;# 
   368     0FE7                     PCLATH_SHAD     equ	4071	;# 
   369     0FE8                     FSR0L_SHAD      equ	4072	;# 
   370     0FE9                     FSR0H_SHAD      equ	4073	;# 
   371     0FEA                     FSR1L_SHAD      equ	4074	;# 
   372     0FEB                     FSR1H_SHAD      equ	4075	;# 
   373     0FED                     STKPTR          equ	4077	;# 
   374     0FEE                     TOSL            equ	4078	;# 
   375     0FEF                     TOSH            equ	4079	;# 
   376                           
   377                           	psect	idataBANK0
   378     0758                     __pidataBANK0:
   379                           
   380                           ;initializer for _Buffers
   381     0758  3408               	retlw	8
   382     0759  3451               	retlw	low (_HIDTxBuffer| 0)
   383     075A  3400               	retlw	high (_HIDTxBuffer| 0)
   384     075B  3408               	retlw	8
   385     075C  3459               	retlw	low (_HIDRxBuffer| 0)
   386     075D  3400               	retlw	high (_HIDRxBuffer| 0)
   387                           
   388                           	psect	stringtext1
   389     075E                     __pstringtext1:
   390     075E                     _StringDescriptorPointers:
   391     075E  3476               	retlw	low (_StringDescriptor0| (0+32768))
   392     075F  3487               	retlw	high (_StringDescriptor0| (0+32768))
   393     0760  349F               	retlw	low (_StringDescriptor1| (0+32768))
   394     0761  3486               	retlw	high (_StringDescriptor1| (0+32768))
   395     0762  34C4               	retlw	low (_StringDescriptor2| (0+32768))
   396     0763  3485               	retlw	high (_StringDescriptor2| (0+32768))
   397     0764                     __end_of_StringDescriptorPointers:
   398                           
   399                           	psect	stringtext2
   400     0518                     __pstringtext2:
   401     0518                     _HIDReport:
   402     0518  3405               	retlw	5
   403     0519  3401               	retlw	1
   404     051A  3409               	retlw	9
   405     051B  3406               	retlw	6
   406     051C  34A1               	retlw	161
   407     051D  3401               	retlw	1
   408     051E  3405               	retlw	5
   409     051F  3407               	retlw	7
   410     0520  3419               	retlw	25
   411     0521  34E0               	retlw	224
   412     0522  3429               	retlw	41
   413     0523  34E7               	retlw	231
   414     0524  3415               	retlw	21
   415     0525  3400               	retlw	0
   416     0526  3425               	retlw	37
   417     0527  3401               	retlw	1
   418     0528  3475               	retlw	117
   419     0529  3401               	retlw	1
   420     052A  3495               	retlw	149
   421     052B  3408               	retlw	8
   422     052C  3481               	retlw	129
   423     052D  3402               	retlw	2
   424     052E  3495               	retlw	149
   425     052F  3401               	retlw	1
   426     0530  3475               	retlw	117
   427     0531  3408               	retlw	8
   428     0532  3481               	retlw	129
   429     0533  3403               	retlw	3
   430     0534  3495               	retlw	149
   431     0535  3405               	retlw	5
   432     0536  3475               	retlw	117
   433     0537  3401               	retlw	1
   434     0538  3405               	retlw	5
   435     0539  3408               	retlw	8
   436     053A  3419               	retlw	25
   437     053B  3401               	retlw	1
   438     053C  3429               	retlw	41
   439     053D  3405               	retlw	5
   440     053E  3491               	retlw	145
   441     053F  3402               	retlw	2
   442     0540  3495               	retlw	149
   443     0541  3401               	retlw	1
   444     0542  3475               	retlw	117
   445     0543  3403               	retlw	3
   446     0544  3491               	retlw	145
   447     0545  3403               	retlw	3
   448     0546  3495               	retlw	149
   449     0547  3406               	retlw	6
   450     0548  3475               	retlw	117
   451     0549  3408               	retlw	8
   452     054A  3415               	retlw	21
   453     054B  3400               	retlw	0
   454     054C  3425               	retlw	37
   455     054D  3465               	retlw	101
   456     054E  3405               	retlw	5
   457     054F  3407               	retlw	7
   458     0550  3419               	retlw	25
   459     0551  3400               	retlw	0
   460     0552  3429               	retlw	41
   461     0553  3465               	retlw	101
   462     0554  3481               	retlw	129
   463     0555  3400               	retlw	0
   464     0556  34C0               	retlw	192
   465     0557                     __end_of_HIDReport:
   466                           
   467                           	psect	stringtext3
   468     05C4                     __pstringtext3:
   469     05C4                     _StringDescriptor2:
   470     05C4  342A               	retlw	42
   471     05C5  3403               	retlw	3
   472     05C6  3431               	retlw	49
   473     05C7  3400               	retlw	0
   474     05C8  3436               	retlw	54
   475     05C9  3400               	retlw	0
   476     05CA  3446               	retlw	70
   477     05CB  3400               	retlw	0
   478     05CC  3431               	retlw	49
   479     05CD  3400               	retlw	0
   480     05CE  3434               	retlw	52
   481     05CF  3400               	retlw	0
   482     05D0  3435               	retlw	53
   483     05D1  3400               	retlw	0
   484     05D2  3435               	retlw	53
   485     05D3  3400               	retlw	0
   486     05D4  3420               	retlw	32
   487     05D5  3400               	retlw	0
   488     05D6  3448               	retlw	72
   489     05D7  3400               	retlw	0
   490     05D8  3449               	retlw	73
   491     05D9  3400               	retlw	0
   492     05DA  3444               	retlw	68
   493     05DB  3400               	retlw	0
   494     05DC  3420               	retlw	32
   495     05DD  3400               	retlw	0
   496     05DE  344B               	retlw	75
   497     05DF  3400               	retlw	0
   498     05E0  3465               	retlw	101
   499     05E1  3400               	retlw	0
   500     05E2  3479               	retlw	121
   501     05E3  3400               	retlw	0
   502     05E4  3462               	retlw	98
   503     05E5  3400               	retlw	0
   504     05E6  346F               	retlw	111
   505     05E7  3400               	retlw	0
   506     05E8  3461               	retlw	97
   507     05E9  3400               	retlw	0
   508     05EA  3472               	retlw	114
   509     05EB  3400               	retlw	0
   510     05EC  3464               	retlw	100
   511     05ED  3400               	retlw	0
   512     05EE                     __end_of_StringDescriptor2:
   513                           
   514                           	psect	stringtext4
   515     05EE                     __pstringtext4:
   516     05EE                     _ConfigurationDescriptor:
   517     05EE  3409               	retlw	9
   518     05EF  3402               	retlw	2
   519     05F0  3429               	retlw	41
   520     05F1  3400               	retlw	0
   521     05F2  3401               	retlw	1
   522     05F3  3401               	retlw	1
   523     05F4  3400               	retlw	0
   524     05F5  34A0               	retlw	160
   525     05F6  3432               	retlw	50
   526     05F7  3409               	retlw	9
   527     05F8  3404               	retlw	4
   528     05F9  3400               	retlw	0
   529     05FA  3400               	retlw	0
   530     05FB  3402               	retlw	2
   531     05FC  3403               	retlw	3
   532     05FD  3401               	retlw	1
   533     05FE  3401               	retlw	1
   534     05FF  3400               	retlw	0
   535     0600  3409               	retlw	9
   536     0601  3421               	retlw	33
   537     0602  3411               	retlw	17
   538     0603  3401               	retlw	1
   539     0604  3400               	retlw	0
   540     0605  3401               	retlw	1
   541     0606  3422               	retlw	34
   542     0607  343F               	retlw	63
   543     0608  3400               	retlw	0
   544     0609  3407               	retlw	7
   545     060A  3405               	retlw	5
   546     060B  3481               	retlw	129
   547     060C  3403               	retlw	3
   548     060D  3408               	retlw	8
   549     060E  3400               	retlw	0
   550     060F  3401               	retlw	1
   551     0610  3407               	retlw	7
   552     0611  3405               	retlw	5
   553     0612  3401               	retlw	1
   554     0613  3403               	retlw	3
   555     0614  3408               	retlw	8
   556     0615  3400               	retlw	0
   557     0616  3401               	retlw	1
   558     0617                     __end_of_ConfigurationDescriptor:
   559                           
   560                           	psect	stringtext5
   561     069F                     __pstringtext5:
   562     069F                     _StringDescriptor1:
   563     069F  3418               	retlw	24
   564     06A0  3403               	retlw	3
   565     06A1  3444               	retlw	68
   566     06A2  3400               	retlw	0
   567     06A3  3449               	retlw	73
   568     06A4  3400               	retlw	0
   569     06A5  3459               	retlw	89
   570     06A6  3400               	retlw	0
   571     06A7  3420               	retlw	32
   572     06A8  3400               	retlw	0
   573     06A9  3444               	retlw	68
   574     06AA  3400               	retlw	0
   575     06AB  3465               	retlw	101
   576     06AC  3400               	retlw	0
   577     06AD  3476               	retlw	118
   578     06AE  3400               	retlw	0
   579     06AF  3469               	retlw	105
   580     06B0  3400               	retlw	0
   581     06B1  3463               	retlw	99
   582     06B2  3400               	retlw	0
   583     06B3  3465               	retlw	101
   584     06B4  3400               	retlw	0
   585     06B5  3473               	retlw	115
   586     06B6  3400               	retlw	0
   587     06B7                     __end_of_StringDescriptor1:
   588                           
   589                           	psect	stringtext6
   590     06F3                     __pstringtext6:
   591     06F3                     _DeviceDescriptor:
   592     06F3  3412               	retlw	18
   593     06F4  3401               	retlw	1
   594     06F5  3400               	retlw	0
   595     06F6  3402               	retlw	2
   596     06F7  3400               	retlw	0
   597     06F8  3400               	retlw	0
   598     06F9  3400               	retlw	0
   599     06FA  3408               	retlw	8
   600     06FB  34D8               	retlw	216
   601     06FC  3404               	retlw	4
   602     06FD  34A6               	retlw	166
   603     06FE  3401               	retlw	1
   604     06FF  3401               	retlw	1
   605     0700  3400               	retlw	0
   606     0701  3401               	retlw	1
   607     0702  3402               	retlw	2
   608     0703  3400               	retlw	0
   609     0704  3401               	retlw	1
   610     0705                     __end_of_DeviceDescriptor:
   611                           
   612                           	psect	stringtext7
   613     0776                     __pstringtext7:
   614     0776                     _StringDescriptor0:
   615     0776  3404               	retlw	4
   616     0777  3403               	retlw	3
   617     0778  3409               	retlw	9
   618     0779  3404               	retlw	4
   619     077A                     __end_of_StringDescriptor0:
   620     000C                     _PORTAbits      set	12
   621     000B                     _INTCONbits     set	11
   622     0012                     _PIR2bits       set	18
   623     0092                     _PIE2bits       set	146
   624     008E                     _TRISCbits      set	142
   625     0095                     _OPTION_REGbits set	149
   626     008C                     _TRISAbits      set	140
   627     0095                     _OPTION_REG     set	149
   628     0099                     _OSCCON         set	153
   629     0098                     _OSCTUNE        set	152
   630     010E                     _LATCbits       set	270
   631     018E                     _ANSELC         set	398
   632     018C                     _ANSELA         set	396
   633     020C                     _WPUAbits       set	524
   634     039B                     _ACTCON         set	923
   635     0E99                     _EndpointFlags  set	3737
   636     0E98                     _UEP0           set	3736
   637     0E97                     _UEIE           set	3735
   638     0E98                     _UEP0bits       set	3736
   639     0E90                     _UIRbits        set	3728
   640     0E92                     _UIEbits        set	3730
   641     0E90                     _UIR            set	3728
   642     0E8E                     _UCON           set	3726
   643     0E93                     _UEIR           set	3731
   644     0E91                     _UCFG           set	3729
   645     0E96                     _UADDR          set	3734
   646     0E8F                     _USTAT          set	3727
   647     0E8E                     _UCONbits       set	3726
   648     0E92                     _UIE            set	3730
   649                           
   650                           	psect	cinit
   651     0012                     start_initialization:	
   652                           ; #config settings
   653                           
   654     0012                     __initialization:
   655                           
   656                           ; Initialize objects allocated to BANK0
   657     0012  3058               	movlw	low __pidataBANK0
   658     0013  0084               	movwf	4
   659     0014  3087               	movlw	(high __pidataBANK0)| (0+128)
   660     0015  0085               	movwf	5
   661     0016  0012               	moviw fsr0++
   662     0017  00E4               	movwf	__pdataBANK0& (0+127)
   663     0018  0012               	moviw fsr0++
   664     0019  00E5               	movwf	(__pdataBANK0+1)& (0+127)
   665     001A  0012               	moviw fsr0++
   666     001B  00E6               	movwf	(__pdataBANK0+2)& (0+127)
   667     001C  0012               	moviw fsr0++
   668     001D  00E7               	movwf	(__pdataBANK0+3)& (0+127)
   669     001E  0012               	moviw fsr0++
   670     001F  00E8               	movwf	(__pdataBANK0+4)& (0+127)
   671     0020  0012               	moviw fsr0++
   672     0021  00E9               	movwf	(__pdataBANK0+5)& (0+127)
   673                           
   674                           ; Clear objects allocated to COMMON
   675     0022  01FD               	clrf	__pbssCOMMON& (0+127)
   676                           
   677                           ; Clear objects allocated to BANK0
   678     0023  3030               	movlw	low __pbssBANK0
   679     0024  0084               	movwf	4
   680     0025  3000               	movlw	high __pbssBANK0
   681     0026  0085               	movwf	5
   682     0027  3034               	movlw	52
   683     0028  3187  2764  3180   	fcall	clear_ram0
   684     002B                     end_of_initialization:	
   685                           ;End of C runtime variable initialization code
   686                           
   687     002B                     __end_of__initialization:
   688     002B  107E               	bcf	int$flags,0	;clear compiler interrupt flag (level 1)
   689     002C  0020               	movlb	0
   690     002D  3187  2F05         	ljmp	_main	;jump to C main() function
   691                           
   692                           	psect	bssCOMMON
   693     007D                     __pbssCOMMON:
   694     007D                     _DeviceState:
   695     007D                     	ds	1
   696                           
   697                           	psect	bssBANK0
   698     0030                     __pbssBANK0:
   699     0030                     _wCount:
   700     0030                     	ds	2
   701     0032                     _ROMoutPtr:
   702     0032                     	ds	2
   703     0034                     _transferType:
   704     0034                     	ds	1
   705     0035                     _inPtr:
   706     0035                     	ds	1
   707     0036                     _outPtr:
   708     0036                     	ds	1
   709     0037                     _HidRxLen:
   710     0037                     	ds	1
   711     0038                     _RequestHandled:
   712     0038                     	ds	1
   713     0039                     _HIDPostProcess:
   714     0039                     	ds	1
   715     003A                     _CtrlTransferStage:
   716     003A                     	ds	1
   717     003B                     _SelfPowered:
   718     003B                     	ds	1
   719     003C                     _DeviceAddress:
   720     003C                     	ds	1
   721     003D                     _RemoteWakeup:
   722     003D                     	ds	1
   723     003E                     _Button2Status:
   724     003E                     	ds	1
   725     003F                     _Button1Status:
   726     003F                     	ds	1
   727     0040                     _SetupPacket:
   728     0040                     	ds	9
   729     0049                     _ControlTransferBuffer:
   730     0049                     	ds	8
   731     0051                     _HIDTxBuffer:
   732     0051                     	ds	8
   733     0059                     _HIDRxBuffer:
   734     0059                     	ds	8
   735     0061                     _HidProtocol:
   736     0061                     	ds	1
   737     0062                     _HidIdleRate:
   738     0062                     	ds	1
   739     0063                     _CurrentConfiguration:
   740     0063                     	ds	1
   741                           
   742                           	psect	dataBANK0
   743     0064                     __pdataBANK0:
   744     0064                     _Buffers:
   745     0064                     	ds	6
   746                           
   747                           	psect	clrtext
   748     0764                     clear_ram0:	
   749                           ;	Called with FSR0 containing the base address, and
   750                           ;	WREG with the size to clear
   751                           
   752     0764  0064               	clrwdt	;clear the watchdog before getting into this loop
   753     0765                     clrloop0:
   754     0765  0180               	clrf	0	;clear RAM location pointed to by FSR
   755     0766  3101               	addfsr 0,1
   756     0767  0B89               	decfsz	9,f	;Have we reached the end of clearing yet?
   757     0768  2F65               	goto	clrloop0	;have we reached the end yet?
   758     0769  3400               	retlw	0	;all done for this memory range, return
   759                           
   760                           	psect	cstackCOMMON
   761     0070                     __pcstackCOMMON:
   762     0070                     ?_ProcessUSBTransactions:
   763     0070                     ?_IsUsbDataAvaialble:	
   764                           ; 1 bytes @ 0x0
   765                           
   766     0070                     ?_ReArmInterface:	
   767                           ; 1 bytes @ 0x0
   768                           
   769     0070                     ?_HIDSend:	
   770                           ; 1 bytes @ 0x0
   771                           
   772     0070                     ?_InitializeUSB:	
   773                           ; 1 bytes @ 0x0
   774                           
   775     0070                     ?_EnableUSBModule:	
   776                           ; 1 bytes @ 0x0
   777                           
   778     0070                     ?_ISRCode:	
   779                           ; 1 bytes @ 0x0
   780                           
   781     0070                     ?_InitializeSystem:	
   782                           ; 1 bytes @ 0x0
   783                           
   784     0070                     ?_EnableInterrupts:	
   785                           ; 1 bytes @ 0x0
   786                           
   787     0070                     ?_PrepareTxBuffer:	
   788                           ; 1 bytes @ 0x0
   789                           
   790     0070                     ?_ProcessIncommingData:	
   791                           ; 1 bytes @ 0x0
   792                           
   793     0070                     ?_CheckUsb:	
   794                           ; 1 bytes @ 0x0
   795                           
   796     0070                     ?_ProcessIO:	
   797                           ; 1 bytes @ 0x0
   798                           
   799     0070                     ?_main:	
   800                           ; 1 bytes @ 0x0
   801                           
   802     0070                     ?_HIDInitEndpoints:	
   803                           ; 1 bytes @ 0x0
   804                           
   805     0070                     ?_ProcessHIDRequest:	
   806                           ; 1 bytes @ 0x0
   807                           
   808     0070                     ?_GetDescriptor:	
   809                           ; 1 bytes @ 0x0
   810                           
   811     0070                     ?_GetStatus:	
   812                           ; 1 bytes @ 0x0
   813                           
   814     0070                     ?_SetFeature:	
   815                           ; 1 bytes @ 0x0
   816                           
   817     0070                     ?_ProcessStandardRequest:	
   818                           ; 1 bytes @ 0x0
   819                           
   820     0070                     ?_InDataStage:	
   821                           ; 1 bytes @ 0x0
   822                           
   823     0070                     ?_OutDataStage:	
   824                           ; 1 bytes @ 0x0
   825                           
   826     0070                     ?_SetupStage:	
   827                           ; 1 bytes @ 0x0
   828                           
   829     0070                     ?_WaitForSetupStage:	
   830                           ; 1 bytes @ 0x0
   831                           
   832     0070                     ?_ProcessControlTransfer:	
   833                           ; 1 bytes @ 0x0
   834                           
   835     0070                     ?_ResetPPBuffers:	
   836                           ; 1 bytes @ 0x0
   837                           
   838     0070                     ?_UnSuspend:	
   839                           ; 1 bytes @ 0x0
   840                           
   841     0070                     ?_StartOfFrame:	
   842                           ; 1 bytes @ 0x0
   843                           
   844     0070                     ?_Stall:	
   845                           ; 1 bytes @ 0x0
   846                           
   847     0070                     ?_Suspend:	
   848                           ; 1 bytes @ 0x0
   849                           
   850     0070                     ?_BusReset:	
   851                           ; 1 bytes @ 0x0
   852                           
   853     0070                     ?i1___bmul:	
   854                           ; 1 bytes @ 0x0
   855                           
   856     0070                     i1___bmul@multiplicand:	
   857                           ; 1 bytes @ 0x0
   858                           
   859     0070                     ??_ProcessHIDRequest:	
   860                           ; 1 bytes @ 0x0
   861                           
   862     0070                     ??_GetDescriptor:	
   863                           ; 1 bytes @ 0x0
   864                           
   865     0070                     ??_GetStatus:	
   866                           ; 1 bytes @ 0x0
   867                           
   868     0070                     ??_SetFeature:	
   869                           ; 1 bytes @ 0x0
   870                           
   871     0070                     ??_InDataStage:	
   872                           ; 1 bytes @ 0x0
   873                           
   874     0070                     ??_OutDataStage:	
   875                           ; 1 bytes @ 0x0
   876                           
   877     0070                     ??_WaitForSetupStage:	
   878                           ; 1 bytes @ 0x0
   879                           
   880     0070                     ??_UnSuspend:	
   881                           ; 1 bytes @ 0x0
   882                           
   883     0070                     ??_StartOfFrame:	
   884                           ; 1 bytes @ 0x0
   885                           
   886     0070                     ??_Stall:	
   887                           ; 1 bytes @ 0x0
   888                           
   889     0070                     ??_Suspend:	
   890                           ; 1 bytes @ 0x0
   891                           
   892     0070                     ??_BusReset:	
   893                           ; 1 bytes @ 0x0
   894                           
   895                           
   896                           ; 1 bytes @ 0x0
   897     0070                     	ds	1
   898     0071                     ProcessHIDRequest@descriptorType:
   899     0071                     InDataStage@i:	
   900                           ; 1 bytes @ 0x1
   901                           
   902     0071                     i1___bmul@product:	
   903                           ; 1 bytes @ 0x1
   904                           
   905     0071                     OutDataStage@i:	
   906                           ; 1 bytes @ 0x1
   907                           
   908     0071                     ??i1___bmul:	
   909                           ; 2 bytes @ 0x1
   910                           
   911                           
   912                           ; 1 bytes @ 0x1
   913     0071                     	ds	1
   914     0072                     ProcessHIDRequest@bRequest:
   915     0072                     i1___bmul@multiplier:	
   916                           ; 1 bytes @ 0x2
   917                           
   918     0072                     InDataStage@bufferSize:	
   919                           ; 1 bytes @ 0x2
   920                           
   921                           
   922                           ; 2 bytes @ 0x2
   923     0072                     	ds	1
   924     0073                     GetDescriptor@descriptorIndex:
   925     0073                     OutDataStage@bufferSize:	
   926                           ; 1 bytes @ 0x3
   927                           
   928     0073                     ??_HIDInitEndpoints:	
   929                           ; 2 bytes @ 0x3
   930                           
   931                           
   932                           ; 1 bytes @ 0x3
   933     0073                     	ds	1
   934     0074                     HIDInitEndpoints@i:
   935     0074                     GetDescriptor@descriptorType:	
   936                           ; 1 bytes @ 0x4
   937                           
   938                           
   939                           ; 1 bytes @ 0x4
   940     0074                     	ds	2
   941     0076                     GetStatus@endpointNum:
   942     0076                     SetFeature@recipient:	
   943                           ; 1 bytes @ 0x6
   944                           
   945                           
   946                           ; 1 bytes @ 0x6
   947     0076                     	ds	1
   948     0077                     GetStatus@endpointDir:
   949     0077                     SetFeature@feature:	
   950                           ; 1 bytes @ 0x7
   951                           
   952                           
   953                           ; 1 bytes @ 0x7
   954     0077                     	ds	1
   955     0078                     GetStatus@recipient:
   956     0078                     SetFeature@endpointNum:	
   957                           ; 1 bytes @ 0x8
   958                           
   959                           
   960                           ; 1 bytes @ 0x8
   961     0078                     	ds	1
   962     0079                     SetFeature@endpointDir:
   963                           
   964                           ; 1 bytes @ 0x9
   965     0079                     	ds	1
   966     007A                     ProcessStandardRequest@request:
   967     007A                     ??_ProcessStandardRequest:	
   968                           ; 1 bytes @ 0xA
   969                           
   970                           
   971                           ; 1 bytes @ 0xA
   972     007A                     	ds	1
   973     007B                     ??_SetupStage:
   974     007B                     ??_ProcessControlTransfer:	
   975                           ; 1 bytes @ 0xB
   976                           
   977                           
   978                           ; 1 bytes @ 0xB
   979     007B                     	ds	1
   980     007C                     ProcessControlTransfer@PID:
   981                           
   982                           ; 1 bytes @ 0xC
   983     007C                     	ds	1
   984     007D                     ??_ProcessUSBTransactions:
   985     007D                     ??_ISRCode:	
   986                           ; 1 bytes @ 0xD
   987                           
   988                           
   989                           	psect	cstackBANK0
   990     006A                     __pcstackBANK0:	
   991                           ; 1 bytes @ 0xD
   992                           
   993     006A                     ?___bmul:
   994     006A                     PrepareTxBuffer@i:	
   995                           ; 1 bytes @ 0x0
   996                           
   997     006A                     ___bmul@multiplicand:	
   998                           ; 1 bytes @ 0x0
   999                           
  1000     006A                     ??_IsUsbDataAvaialble:	
  1001                           ; 1 bytes @ 0x0
  1002                           
  1003     006A                     ??_InitializeUSB:	
  1004                           ; 1 bytes @ 0x0
  1005                           
  1006     006A                     ??_EnableUSBModule:	
  1007                           ; 1 bytes @ 0x0
  1008                           
  1009     006A                     ??_InitializeSystem:	
  1010                           ; 1 bytes @ 0x0
  1011                           
  1012     006A                     ??_EnableInterrupts:	
  1013                           ; 1 bytes @ 0x0
  1014                           
  1015     006A                     ??_PrepareTxBuffer:	
  1016                           ; 1 bytes @ 0x0
  1017                           
  1018     006A                     ??_ProcessIncommingData:	
  1019                           ; 1 bytes @ 0x0
  1020                           
  1021     006A                     ??_ResetPPBuffers:	
  1022                           ; 1 bytes @ 0x0
  1023                           
  1024                           
  1025                           ; 1 bytes @ 0x0
  1026     006A                     	ds	1
  1027     006B                     IsUsbDataAvaialble@InterfaceNo:
  1028     006B                     ___bmul@product:	
  1029                           ; 1 bytes @ 0x1
  1030                           
  1031     006B                     ??___bmul:	
  1032                           ; 1 bytes @ 0x1
  1033                           
  1034                           
  1035                           ; 1 bytes @ 0x1
  1036     006B                     	ds	1
  1037     006C                     ___bmul@multiplier:
  1038                           
  1039                           ; 1 bytes @ 0x2
  1040     006C                     	ds	1
  1041     006D                     ??_ReArmInterface:
  1042     006D                     ??_HIDSend:	
  1043                           ; 1 bytes @ 0x3
  1044                           
  1045                           
  1046                           ; 1 bytes @ 0x3
  1047     006D                     	ds	1
  1048     006E                     ReArmInterface@InterfaceNo:
  1049     006E                     HIDSend@InterfaceNo:	
  1050                           ; 1 bytes @ 0x4
  1051                           
  1052                           
  1053                           ; 1 bytes @ 0x4
  1054     006E                     	ds	1
  1055     006F                     ??_CheckUsb:
  1056     006F                     ??_ProcessIO:	
  1057                           ; 1 bytes @ 0x5
  1058                           
  1059     006F                     ??_main:	
  1060                           ; 1 bytes @ 0x5
  1061                           
  1062                           
  1063                           	psect	maintext
  1064     0705                     __pmaintext:	
  1065                           ; 1 bytes @ 0x5
  1066 ;;
  1067 ;;Main: autosize = 0, tempsize = 0, incstack = 0, save=0
  1068 ;;
  1069 ;; *************** function _main *****************
  1070 ;; Defined at:
  1071 ;;		line 215 in file "main.c"
  1072 ;; Parameters:    Size  Location     Type
  1073 ;;		None
  1074 ;; Auto vars:     Size  Location     Type
  1075 ;;		None
  1076 ;; Return value:  Size  Location     Type
  1077 ;;                  1    wreg      void 
  1078 ;; Registers used:
  1079 ;;		wreg, fsr0l, fsr0h, fsr1l, fsr1h, status,2, status,0, pclath, cstack
  1080 ;; Tracked objects:
  1081 ;;		On entry : B1F/0
  1082 ;;		On exit  : 0/0
  1083 ;;		Unchanged: 0/0
  1084 ;; Data sizes:     COMMON   BANK0   BANK1   BANK2   BANK3   BANK4   BANK5   BANK6   BANK7   BANK8   BANK9  BANK10  BANK1
      +1  BANK12
  1085 ;;      Params:         0       0       0       0       0       0       0       0       0       0       0       0       
      +0       0
  1086 ;;      Locals:         0       0       0       0       0       0       0       0       0       0       0       0       
      +0       0
  1087 ;;      Temps:          0       0       0       0       0       0       0       0       0       0       0       0       
      +0       0
  1088 ;;      Totals:         0       0       0       0       0       0       0       0       0       0       0       0       
      +0       0
  1089 ;;Total ram usage:        0 bytes
  1090 ;; Hardware stack levels required when called: 11
  1091 ;; This function calls:
  1092 ;;		_EnableInterrupts
  1093 ;;		_EnableUSBModule
  1094 ;;		_InitializeSystem
  1095 ;;		_InitializeUSB
  1096 ;;		_ProcessIO
  1097 ;; This function is called by:
  1098 ;;		Startup code after reset
  1099 ;; This function uses a non-reentrant model
  1100 ;;
  1101                           
  1102     0705                     _main:	
  1103                           ;psect for function _main
  1104                           
  1105     0705                     l2697:	
  1106                           ;incstack = 0
  1107                           ; Regs used in _main: [wreg-fsr1h+status,2+status,0+pclath+cstack]
  1108                           
  1109                           
  1110                           ;main.c: 217:     InitializeSystem();
  1111     0705  3186  2663  3187   	fcall	_InitializeSystem
  1112                           
  1113                           ;main.c: 218:     InitializeUSB();
  1114     0708  3187  2728  3187   	fcall	_InitializeUSB
  1115                           
  1116                           ;main.c: 219:     EnableUSBModule();
  1117     070B  3186  26B7  3187   	fcall	_EnableUSBModule
  1118                           
  1119                           ;main.c: 220:     EnableInterrupts();
  1120     070E  3187  2750  3187   	fcall	_EnableInterrupts
  1121     0711                     l2699:
  1122     0711  3185  2557  3187   	fcall	_ProcessIO
  1123     0714  2F11               	goto	l2699
  1124     0715  3180  2810         	ljmp	start
  1125     0717                     __end_of_main:
  1126                           
  1127                           	psect	text1
  1128     0557                     __ptext1:	
  1129 ;; *************** function _ProcessIO *****************
  1130 ;; Defined at:
  1131 ;;		line 194 in file "main.c"
  1132 ;; Parameters:    Size  Location     Type
  1133 ;;		None
  1134 ;; Auto vars:     Size  Location     Type
  1135 ;;		None
  1136 ;; Return value:  Size  Location     Type
  1137 ;;                  1    wreg      void 
  1138 ;; Registers used:
  1139 ;;		wreg, fsr0l, fsr0h, fsr1l, fsr1h, status,2, status,0, pclath, cstack
  1140 ;; Tracked objects:
  1141 ;;		On entry : 0/0
  1142 ;;		On exit  : 0/0
  1143 ;;		Unchanged: 0/0
  1144 ;; Data sizes:     COMMON   BANK0   BANK1   BANK2   BANK3   BANK4   BANK5   BANK6   BANK7   BANK8   BANK9  BANK10  BANK1
      +1  BANK12
  1145 ;;      Params:         0       0       0       0       0       0       0       0       0       0       0       0       
      +0       0
  1146 ;;      Locals:         0       0       0       0       0       0       0       0       0       0       0       0       
      +0       0
  1147 ;;      Temps:          0       0       0       0       0       0       0       0       0       0       0       0       
      +0       0
  1148 ;;      Totals:         0       0       0       0       0       0       0       0       0       0       0       0       
      +0       0
  1149 ;;Total ram usage:        0 bytes
  1150 ;; Hardware stack levels used: 1
  1151 ;; Hardware stack levels required when called: 10
  1152 ;; This function calls:
  1153 ;;		_CheckUsb
  1154 ;;		_HIDSend
  1155 ;;		_PrepareTxBuffer
  1156 ;; This function is called by:
  1157 ;;		_main
  1158 ;; This function uses a non-reentrant model
  1159 ;;
  1160                           
  1161     0557                     _ProcessIO:	
  1162                           ;psect for function _ProcessIO
  1163                           
  1164     0557                     l2671:	
  1165                           ;incstack = 0
  1166                           ; Regs used in _ProcessIO: [wreg-fsr1h+status,2+status,0+pclath+cstack]
  1167                           
  1168                           
  1169                           ;main.c: 197:     if (((DeviceState == 0x05) && (UCONbits.SUSPND==0))) CheckUsb();
  1170     0557  3005               	movlw	5
  1171     0558  067D               	xorwf	_DeviceState,w
  1172     0559  1D03               	btfss	3,2
  1173     055A  2D5C               	goto	u3301
  1174     055B  2D5D               	goto	u3300
  1175     055C                     u3301:
  1176     055C  2D65               	goto	l2677
  1177     055D                     u3300:
  1178     055D                     l2673:
  1179     055D  003D               	movlb	29	; select bank29
  1180     055E  188E               	btfsc	14,1	;volatile
  1181     055F  2D61               	goto	u3311
  1182     0560  2D62               	goto	u3310
  1183     0561                     u3311:
  1184     0561  2D65               	goto	l2677
  1185     0562                     u3310:
  1186     0562                     l2675:
  1187     0562  3187  2717  3185   	fcall	_CheckUsb
  1188     0565                     l2677:
  1189                           
  1190                           ;main.c: 200:     if ((PORTAbits.RA4 != Button1Status ) ||
  1191     0565  0020               	movlb	0	; select bank0
  1192     0566  0E0C               	swapf	12,w	;volatile
  1193     0567  3901               	andlw	1
  1194     0568  063F               	xorwf	_Button1Status,w
  1195     0569  1D03               	skipz
  1196     056A  2D6C               	goto	u3321
  1197     056B  2D6D               	goto	u3320
  1198     056C                     u3321:
  1199     056C  2D75               	goto	l2681
  1200     056D                     u3320:
  1201     056D                     l2679:
  1202     056D  0E0C               	swapf	12,w	;volatile
  1203     056E  0C89               	rrf	9,f
  1204     056F  3901               	andlw	1
  1205     0570  063E               	xorwf	_Button2Status,w
  1206     0571  1903               	skipnz
  1207     0572  2D74               	goto	u3331
  1208     0573  2D75               	goto	u3330
  1209     0574                     u3331:
  1210     0574  2D95               	goto	l105
  1211     0575                     u3330:
  1212     0575                     l2681:
  1213                           
  1214                           ;main.c: 202:     {;main.c: 204:         PrepareTxBuffer();
  1215     0575  3186  2617  3185   	fcall	_PrepareTxBuffer
  1216     0578                     l2683:
  1217                           
  1218                           ;main.c: 205:         HIDSend(0x00);
  1219     0578  3000               	movlw	0
  1220     0579  3184  247B  3185   	fcall	_HIDSend
  1221     057C                     l2685:
  1222                           
  1223                           ;main.c: 208:         Button1Status = PORTAbits.RA4;
  1224     057C  0020               	movlb	0	; select bank0
  1225     057D  0E0C               	swapf	12,w	;volatile
  1226     057E  3901               	andlw	1
  1227     057F  00BF               	movwf	_Button1Status
  1228     0580                     l2687:
  1229                           
  1230                           ;main.c: 209:         Button2Status = PORTAbits.RA5;
  1231     0580  0E0C               	swapf	12,w	;volatile
  1232     0581  0C89               	rrf	9,f
  1233     0582  3901               	andlw	1
  1234     0583  00BE               	movwf	_Button2Status
  1235     0584                     l2689:
  1236                           
  1237                           ;main.c: 210:         LATCbits.LATC2 = PORTAbits.RA4;
  1238     0584  1A0C               	btfsc	12,4	;volatile
  1239     0585  2D87               	goto	u3341
  1240     0586  2D8A               	goto	u3340
  1241     0587                     u3341:
  1242     0587  0022               	movlb	2	; select bank2
  1243     0588  150E               	bsf	14,2	;volatile
  1244     0589  2D8C               	goto	u3354
  1245     058A                     u3340:
  1246     058A  0022               	movlb	2	; select bank2
  1247     058B  110E               	bcf	14,2	;volatile
  1248     058C                     u3354:
  1249     058C                     l2691:
  1250                           
  1251                           ;main.c: 211:         LATCbits.LATC3 = PORTAbits.RA5;
  1252     058C  0020               	movlb	0	; select bank0
  1253     058D  1A8C               	btfsc	12,5	;volatile
  1254     058E  2D90               	goto	u3361
  1255     058F  2D93               	goto	u3360
  1256     0590                     u3361:
  1257     0590  0022               	movlb	2	; select bank2
  1258     0591  158E               	bsf	14,3	;volatile
  1259     0592  2D95               	goto	u3374
  1260     0593                     u3360:
  1261     0593  0022               	movlb	2	; select bank2
  1262     0594  118E               	bcf	14,3	;volatile
  1263     0595                     u3374:
  1264     0595                     l105:
  1265     0595  0008               	return
  1266     0596                     __end_of_ProcessIO:
  1267                           
  1268                           	psect	text2
  1269     0617                     __ptext2:	
  1270 ;; *************** function _PrepareTxBuffer *****************
  1271 ;; Defined at:
  1272 ;;		line 138 in file "main.c"
  1273 ;; Parameters:    Size  Location     Type
  1274 ;;		None
  1275 ;; Auto vars:     Size  Location     Type
  1276 ;;  i               1    0[BANK0 ] unsigned char 
  1277 ;; Return value:  Size  Location     Type
  1278 ;;                  1    wreg      void 
  1279 ;; Registers used:
  1280 ;;		wreg, fsr1l, fsr1h, status,2, status,0
  1281 ;; Tracked objects:
  1282 ;;		On entry : 0/0
  1283 ;;		On exit  : 0/0
  1284 ;;		Unchanged: 0/0
  1285 ;; Data sizes:     COMMON   BANK0   BANK1   BANK2   BANK3   BANK4   BANK5   BANK6   BANK7   BANK8   BANK9  BANK10  BANK1
      +1  BANK12
  1286 ;;      Params:         0       0       0       0       0       0       0       0       0       0       0       0       
      +0       0
  1287 ;;      Locals:         0       1       0       0       0       0       0       0       0       0       0       0       
      +0       0
  1288 ;;      Temps:          0       0       0       0       0       0       0       0       0       0       0       0       
      +0       0
  1289 ;;      Totals:         0       1       0       0       0       0       0       0       0       0       0       0       
      +0       0
  1290 ;;Total ram usage:        1 bytes
  1291 ;; Hardware stack levels used: 1
  1292 ;; Hardware stack levels required when called: 7
  1293 ;; This function calls:
  1294 ;;		Nothing
  1295 ;; This function is called by:
  1296 ;;		_ProcessIO
  1297 ;; This function uses a non-reentrant model
  1298 ;;
  1299                           
  1300     0617                     _PrepareTxBuffer:	
  1301                           ;psect for function _PrepareTxBuffer
  1302                           
  1303     0617                     l2111:	
  1304                           ;incstack = 0
  1305                           ; Regs used in _PrepareTxBuffer: [wreg+fsr1l+fsr1h+status,2+status,0]
  1306                           
  1307                           
  1308                           ;main.c: 140:     BYTE i;;main.c: 143:     for(i = 0 ; i < 0x08; i++)
  1309     0617  0020               	movlb	0	; select bank0
  1310     0618  01EA               	clrf	PrepareTxBuffer@i
  1311     0619                     l2117:
  1312                           
  1313                           ;main.c: 144:     {;main.c: 145:         HIDTxBuffer[i] = 0x00;
  1314     0619  086A               	movf	PrepareTxBuffer@i,w
  1315     061A  3E51               	addlw	(low (_HIDTxBuffer| 0))& (0+255)
  1316     061B  0086               	movwf	6
  1317     061C  0187               	clrf	7
  1318     061D  0181               	clrf	1
  1319     061E                     l2119:
  1320                           
  1321                           ;main.c: 146:     }
  1322     061E  3001               	movlw	1
  1323     061F  07EA               	addwf	PrepareTxBuffer@i,f
  1324     0620                     l2121:
  1325     0620  3008               	movlw	8
  1326     0621  026A               	subwf	PrepareTxBuffer@i,w
  1327     0622  1C03               	skipc
  1328     0623  2E25               	goto	u2101
  1329     0624  2E26               	goto	u2100
  1330     0625                     u2101:
  1331     0625  2E19               	goto	l2117
  1332     0626                     u2100:
  1333     0626                     l2123:
  1334                           
  1335                           ;main.c: 164:     if((PORTAbits.RA4 != Button1Status ) && (PORTAbits.RA4 == 0))
  1336     0626  0E0C               	swapf	12,w	;volatile
  1337     0627  3901               	andlw	1
  1338     0628  063F               	xorwf	_Button1Status,w
  1339     0629  1903               	skipnz
  1340     062A  2E2C               	goto	u2111
  1341     062B  2E2D               	goto	u2110
  1342     062C                     u2111:
  1343     062C  2E32               	goto	l2129
  1344     062D                     u2110:
  1345     062D                     l2125:
  1346     062D  1A0C               	btfsc	12,4	;volatile
  1347     062E  2E30               	goto	u2121
  1348     062F  2E31               	goto	u2120
  1349     0630                     u2121:
  1350     0630  2E32               	goto	l2129
  1351     0631                     u2120:
  1352     0631                     l2127:
  1353                           
  1354                           ;main.c: 165:     {;main.c: 166:         HIDTxBuffer[0] |= 0x10;
  1355     0631  1651               	bsf	_HIDTxBuffer,4	;volatile
  1356     0632                     l2129:
  1357                           
  1358                           ;main.c: 168:     if((PORTAbits.RA5 != Button2Status ) && (PORTAbits.RA5 == 0))
  1359     0632  0E0C               	swapf	12,w	;volatile
  1360     0633  0C89               	rrf	9,f
  1361     0634  3901               	andlw	1
  1362     0635  063E               	xorwf	_Button2Status,w
  1363     0636  1903               	skipnz
  1364     0637  2E39               	goto	u2131
  1365     0638  2E3A               	goto	u2130
  1366     0639                     u2131:
  1367     0639  2E3F               	goto	l91
  1368     063A                     u2130:
  1369     063A                     l2131:
  1370     063A  1A8C               	btfsc	12,5	;volatile
  1371     063B  2E3D               	goto	u2141
  1372     063C  2E3E               	goto	u2140
  1373     063D                     u2141:
  1374     063D  2E3F               	goto	l91
  1375     063E                     u2140:
  1376     063E                     l2133:
  1377                           
  1378                           ;main.c: 169:     {;main.c: 170:         HIDTxBuffer[0] |= 0x01;
  1379     063E  1451               	bsf	_HIDTxBuffer,0	;volatile
  1380     063F                     l91:
  1381     063F  0008               	return
  1382     0640                     __end_of_PrepareTxBuffer:
  1383                           
  1384                           	psect	text3
  1385     047B                     __ptext3:	
  1386 ;; *************** function _HIDSend *****************
  1387 ;; Defined at:
  1388 ;;		line 215 in file "Usb.c"
  1389 ;; Parameters:    Size  Location     Type
  1390 ;;  InterfaceNo     1    wreg     unsigned char 
  1391 ;; Auto vars:     Size  Location     Type
  1392 ;;  InterfaceNo     1    4[BANK0 ] unsigned char 
  1393 ;; Return value:  Size  Location     Type
  1394 ;;                  1    wreg      void 
  1395 ;; Registers used:
  1396 ;;		wreg, fsr0l, fsr0h, fsr1l, fsr1h, status,2, status,0, pclath, cstack
  1397 ;; Tracked objects:
  1398 ;;		On entry : 0/0
  1399 ;;		On exit  : 0/0
  1400 ;;		Unchanged: 0/0
  1401 ;; Data sizes:     COMMON   BANK0   BANK1   BANK2   BANK3   BANK4   BANK5   BANK6   BANK7   BANK8   BANK9  BANK10  BANK1
      +1  BANK12
  1402 ;;      Params:         0       0       0       0       0       0       0       0       0       0       0       0       
      +0       0
  1403 ;;      Locals:         0       1       0       0       0       0       0       0       0       0       0       0       
      +0       0
  1404 ;;      Temps:          0       1       0       0       0       0       0       0       0       0       0       0       
      +0       0
  1405 ;;      Totals:         0       2       0       0       0       0       0       0       0       0       0       0       
      +0       0
  1406 ;;Total ram usage:        2 bytes
  1407 ;; Hardware stack levels used: 1
  1408 ;; Hardware stack levels required when called: 8
  1409 ;; This function calls:
  1410 ;;		___bmul
  1411 ;; This function is called by:
  1412 ;;		_ProcessIO
  1413 ;; This function uses a non-reentrant model
  1414 ;;
  1415                           
  1416     047B                     _HIDSend:	
  1417                           ;psect for function _HIDSend
  1418                           
  1419                           
  1420                           ;incstack = 0
  1421                           ; Regs used in _HIDSend: [wreg-fsr1h+status,2+status,0+pclath+cstack]
  1422                           ;HIDSend@InterfaceNo stored from wreg
  1423     047B  0020               	movlb	0	; select bank0
  1424     047C  00EE               	movwf	HIDSend@InterfaceNo
  1425     047D                     l2543:
  1426                           
  1427                           ;Usb.c: 215: void HIDSend(BYTE InterfaceNo);Usb.c: 216: {;Usb.c: 218:     if (Interfaces
      +                          [InterfaceNo + 1].Input.Stat & 0x80) return;
  1428     047D  086E               	movf	HIDSend@InterfaceNo,w
  1429     047E  00ED               	movwf	??_HIDSend
  1430     047F  3003               	movlw	3
  1431     0480                     u2955:
  1432     0480  35ED               	lslf	??_HIDSend,f
  1433     0481  0B89               	decfsz	9,f
  1434     0482  2C80               	goto	u2955
  1435     0483  086D               	movf	??_HIDSend,w
  1436     0484  3E2C               	addlw	44
  1437     0485  0086               	movwf	6
  1438     0486  0187               	clrf	7
  1439     0487  1F81               	btfss	1,7
  1440     0488  2C8A               	goto	u2961
  1441     0489  2C8B               	goto	u2960
  1442     048A                     u2961:
  1443     048A  2C8C               	goto	l2547
  1444     048B                     u2960:
  1445     048B  2CC9               	goto	l216
  1446     048C                     l2547:
  1447                           
  1448                           ;Usb.c: 222:     Interfaces[InterfaceNo + 1].Input.Cnt = Buffers[InterfaceNo * 2].Size;
  1449     048C  086E               	movf	HIDSend@InterfaceNo,w
  1450     048D  00ED               	movwf	??_HIDSend
  1451     048E  3003               	movlw	3
  1452     048F                     u2975:
  1453     048F  35ED               	lslf	??_HIDSend,f
  1454     0490  0B89               	decfsz	9,f
  1455     0491  2C8F               	goto	u2975
  1456     0492  086D               	movf	??_HIDSend,w
  1457     0493  3E2D               	addlw	45
  1458     0494  0086               	movwf	6
  1459     0495  0187               	clrf	7
  1460     0496  3006               	movlw	6
  1461     0497  00EA               	movwf	___bmul@multiplicand
  1462     0498  086E               	movf	HIDSend@InterfaceNo,w
  1463     0499  3186  26CC  3184   	fcall	___bmul
  1464     049C  3E64               	addlw	(low (_Buffers| 0))& (0+255)
  1465     049D  0084               	movwf	4
  1466     049E  0185               	clrf	5
  1467     049F  0800               	movf	0,w
  1468     04A0  0081               	movwf	1
  1469     04A1                     l2549:
  1470                           
  1471                           ;Usb.c: 224:     if(Interfaces[InterfaceNo + 1].Input.Stat & 0x40)
  1472     04A1  0020               	movlb	0	; select bank0
  1473     04A2  086E               	movf	HIDSend@InterfaceNo,w
  1474     04A3  00ED               	movwf	??_HIDSend
  1475     04A4  3003               	movlw	3
  1476     04A5                     u2985:
  1477     04A5  35ED               	lslf	??_HIDSend,f
  1478     04A6  0B89               	decfsz	9,f
  1479     04A7  2CA5               	goto	u2985
  1480     04A8  086D               	movf	??_HIDSend,w
  1481     04A9  3E2C               	addlw	44
  1482     04AA  0086               	movwf	6
  1483     04AB  0187               	clrf	7
  1484     04AC  1F01               	btfss	1,6
  1485     04AD  2CAF               	goto	u2991
  1486     04AE  2CB0               	goto	u2990
  1487     04AF                     u2991:
  1488     04AF  2CBD               	goto	l2553
  1489     04B0                     u2990:
  1490     04B0                     l2551:
  1491                           
  1492                           ;Usb.c: 225:         Interfaces[InterfaceNo + 1].Input.Stat = 0x80 | 0x08;
  1493     04B0  086E               	movf	HIDSend@InterfaceNo,w
  1494     04B1  00ED               	movwf	??_HIDSend
  1495     04B2  3003               	movlw	3
  1496     04B3                     u3005:
  1497     04B3  35ED               	lslf	??_HIDSend,f
  1498     04B4  0B89               	decfsz	9,f
  1499     04B5  2CB3               	goto	u3005
  1500     04B6  086D               	movf	??_HIDSend,w
  1501     04B7  3E2C               	addlw	44
  1502     04B8  0086               	movwf	6
  1503     04B9  0187               	clrf	7
  1504     04BA  3088               	movlw	136
  1505     04BB  0081               	movwf	1
  1506     04BC  2CC9               	goto	l216
  1507     04BD                     l2553:
  1508                           
  1509                           ;Usb.c: 227:         Interfaces[InterfaceNo + 1].Input.Stat = 0x80 | 0x40 | 0x08;
  1510     04BD  086E               	movf	HIDSend@InterfaceNo,w
  1511     04BE  00ED               	movwf	??_HIDSend
  1512     04BF  3003               	movlw	3
  1513     04C0                     u3015:
  1514     04C0  35ED               	lslf	??_HIDSend,f
  1515     04C1  0B89               	decfsz	9,f
  1516     04C2  2CC0               	goto	u3015
  1517     04C3  086D               	movf	??_HIDSend,w
  1518     04C4  3E2C               	addlw	44
  1519     04C5  0086               	movwf	6
  1520     04C6  0187               	clrf	7
  1521     04C7  30C8               	movlw	200
  1522     04C8  0081               	movwf	1
  1523     04C9                     l216:
  1524     04C9  0008               	return
  1525     04CA                     __end_of_HIDSend:
  1526                           
  1527                           	psect	text4
  1528     0717                     __ptext4:	
  1529 ;; *************** function _CheckUsb *****************
  1530 ;; Defined at:
  1531 ;;		line 185 in file "main.c"
  1532 ;; Parameters:    Size  Location     Type
  1533 ;;		None
  1534 ;; Auto vars:     Size  Location     Type
  1535 ;;		None
  1536 ;; Return value:  Size  Location     Type
  1537 ;;                  1    wreg      void 
  1538 ;; Registers used:
  1539 ;;		wreg, fsr0l, fsr0h, fsr1l, fsr1h, status,2, status,0, pclath, cstack
  1540 ;; Tracked objects:
  1541 ;;		On entry : 0/0
  1542 ;;		On exit  : 0/0
  1543 ;;		Unchanged: 0/0
  1544 ;; Data sizes:     COMMON   BANK0   BANK1   BANK2   BANK3   BANK4   BANK5   BANK6   BANK7   BANK8   BANK9  BANK10  BANK1
      +1  BANK12
  1545 ;;      Params:         0       0       0       0       0       0       0       0       0       0       0       0       
      +0       0
  1546 ;;      Locals:         0       0       0       0       0       0       0       0       0       0       0       0       
      +0       0
  1547 ;;      Temps:          0       0       0       0       0       0       0       0       0       0       0       0       
      +0       0
  1548 ;;      Totals:         0       0       0       0       0       0       0       0       0       0       0       0       
      +0       0
  1549 ;;Total ram usage:        0 bytes
  1550 ;; Hardware stack levels used: 1
  1551 ;; Hardware stack levels required when called: 9
  1552 ;; This function calls:
  1553 ;;		_IsUsbDataAvaialble
  1554 ;;		_ProcessIncommingData
  1555 ;;		_ReArmInterface
  1556 ;; This function is called by:
  1557 ;;		_ProcessIO
  1558 ;; This function uses a non-reentrant model
  1559 ;;
  1560                           
  1561     0717                     _CheckUsb:	
  1562                           ;psect for function _CheckUsb
  1563                           
  1564     0717                     l2537:	
  1565                           ;incstack = 0
  1566                           ; Regs used in _CheckUsb: [wreg-fsr1h+status,2+status,0+pclath+cstack]
  1567                           
  1568                           
  1569                           ;main.c: 187:     if(IsUsbDataAvaialble(0x00) > 0 )
  1570     0717  3000               	movlw	0
  1571     0718  3186  2640  3187   	fcall	_IsUsbDataAvaialble
  1572     071B  3A00               	xorlw	0
  1573     071C  1903               	skipnz
  1574     071D  2F1F               	goto	u2941
  1575     071E  2F20               	goto	u2940
  1576     071F                     u2941:
  1577     071F  2F27               	goto	l98
  1578     0720                     u2940:
  1579     0720                     l2539:
  1580                           
  1581                           ;main.c: 188:     {;main.c: 189:         ProcessIncommingData();
  1582     0720  3187  2781  3187   	fcall	_ProcessIncommingData
  1583     0723                     l2541:
  1584                           
  1585                           ;main.c: 190:         ReArmInterface(0x00);
  1586     0723  3000               	movlw	0
  1587     0724  3184  24CA  3187   	fcall	_ReArmInterface
  1588     0727                     l98:
  1589     0727  0008               	return
  1590     0728                     __end_of_CheckUsb:
  1591                           
  1592                           	psect	text5
  1593     04CA                     __ptext5:	
  1594 ;; *************** function _ReArmInterface *****************
  1595 ;; Defined at:
  1596 ;;		line 195 in file "Usb.c"
  1597 ;; Parameters:    Size  Location     Type
  1598 ;;  InterfaceNo     1    wreg     unsigned char 
  1599 ;; Auto vars:     Size  Location     Type
  1600 ;;  InterfaceNo     1    4[BANK0 ] unsigned char 
  1601 ;; Return value:  Size  Location     Type
  1602 ;;                  1    wreg      void 
  1603 ;; Registers used:
  1604 ;;		wreg, fsr0l, fsr0h, fsr1l, fsr1h, status,2, status,0, pclath, cstack
  1605 ;; Tracked objects:
  1606 ;;		On entry : 0/0
  1607 ;;		On exit  : 0/0
  1608 ;;		Unchanged: 0/0
  1609 ;; Data sizes:     COMMON   BANK0   BANK1   BANK2   BANK3   BANK4   BANK5   BANK6   BANK7   BANK8   BANK9  BANK10  BANK1
      +1  BANK12
  1610 ;;      Params:         0       0       0       0       0       0       0       0       0       0       0       0       
      +0       0
  1611 ;;      Locals:         0       1       0       0       0       0       0       0       0       0       0       0       
      +0       0
  1612 ;;      Temps:          0       1       0       0       0       0       0       0       0       0       0       0       
      +0       0
  1613 ;;      Totals:         0       2       0       0       0       0       0       0       0       0       0       0       
      +0       0
  1614 ;;Total ram usage:        2 bytes
  1615 ;; Hardware stack levels used: 1
  1616 ;; Hardware stack levels required when called: 8
  1617 ;; This function calls:
  1618 ;;		___bmul
  1619 ;; This function is called by:
  1620 ;;		_CheckUsb
  1621 ;; This function uses a non-reentrant model
  1622 ;;
  1623                           
  1624     04CA                     _ReArmInterface:	
  1625                           ;psect for function _ReArmInterface
  1626                           
  1627                           
  1628                           ;incstack = 0
  1629                           ; Regs used in _ReArmInterface: [wreg-fsr1h+status,2+status,0+pclath+cstack]
  1630                           ;ReArmInterface@InterfaceNo stored from wreg
  1631     04CA  0020               	movlb	0	; select bank0
  1632     04CB  00EE               	movwf	ReArmInterface@InterfaceNo
  1633     04CC                     l2479:
  1634                           
  1635                           ;Usb.c: 195: void ReArmInterface(BYTE InterfaceNo);Usb.c: 196: {;Usb.c: 201:     if(!(In
      +                          terfaces[InterfaceNo + 1].Output.Stat & 0x80))
  1636     04CC  086E               	movf	ReArmInterface@InterfaceNo,w
  1637     04CD  00ED               	movwf	??_ReArmInterface
  1638     04CE  3003               	movlw	3
  1639     04CF                     u2845:
  1640     04CF  35ED               	lslf	??_ReArmInterface,f
  1641     04D0  0B89               	decfsz	9,f
  1642     04D1  2CCF               	goto	u2845
  1643     04D2  086D               	movf	??_ReArmInterface,w
  1644     04D3  3E28               	addlw	40
  1645     04D4  0086               	movwf	6
  1646     04D5  0187               	clrf	7
  1647     04D6  1B81               	btfsc	1,7
  1648     04D7  2CD9               	goto	u2851
  1649     04D8  2CDA               	goto	u2850
  1650     04D9                     u2851:
  1651     04D9  2D17               	goto	l212
  1652     04DA                     u2850:
  1653     04DA                     l2481:
  1654                           
  1655                           ;Usb.c: 202:     {;Usb.c: 204:         Interfaces[InterfaceNo + 1].Output.Cnt = Buffers[
      +                          (InterfaceNo * 2) + 1].Size;
  1656     04DA  086E               	movf	ReArmInterface@InterfaceNo,w
  1657     04DB  00ED               	movwf	??_ReArmInterface
  1658     04DC  3003               	movlw	3
  1659     04DD                     u2865:
  1660     04DD  35ED               	lslf	??_ReArmInterface,f
  1661     04DE  0B89               	decfsz	9,f
  1662     04DF  2CDD               	goto	u2865
  1663     04E0  086D               	movf	??_ReArmInterface,w
  1664     04E1  3E29               	addlw	41
  1665     04E2  0086               	movwf	6
  1666     04E3  0187               	clrf	7
  1667     04E4  3006               	movlw	6
  1668     04E5  00EA               	movwf	___bmul@multiplicand
  1669     04E6  086E               	movf	ReArmInterface@InterfaceNo,w
  1670     04E7  3186  26CC  3184   	fcall	___bmul
  1671     04EA  3E67               	addlw	(low ((_Buffers| 0+3)))& (0+255)
  1672     04EB  0084               	movwf	4
  1673     04EC  0185               	clrf	5
  1674     04ED  0800               	movf	0,w
  1675     04EE  0081               	movwf	1
  1676     04EF                     l2483:
  1677                           
  1678                           ;Usb.c: 208:         if(Interfaces[InterfaceNo + 1].Output.Stat & 0x40)
  1679     04EF  0020               	movlb	0	; select bank0
  1680     04F0  086E               	movf	ReArmInterface@InterfaceNo,w
  1681     04F1  00ED               	movwf	??_ReArmInterface
  1682     04F2  3003               	movlw	3
  1683     04F3                     u2875:
  1684     04F3  35ED               	lslf	??_ReArmInterface,f
  1685     04F4  0B89               	decfsz	9,f
  1686     04F5  2CF3               	goto	u2875
  1687     04F6  086D               	movf	??_ReArmInterface,w
  1688     04F7  3E28               	addlw	40
  1689     04F8  0086               	movwf	6
  1690     04F9  0187               	clrf	7
  1691     04FA  1F01               	btfss	1,6
  1692     04FB  2CFD               	goto	u2881
  1693     04FC  2CFE               	goto	u2880
  1694     04FD                     u2881:
  1695     04FD  2D0B               	goto	l2487
  1696     04FE                     u2880:
  1697     04FE                     l2485:
  1698                           
  1699                           ;Usb.c: 209:             Interfaces[InterfaceNo + 1].Output.Stat = 0x80 | 0x08;
  1700     04FE  086E               	movf	ReArmInterface@InterfaceNo,w
  1701     04FF  00ED               	movwf	??_ReArmInterface
  1702     0500  3003               	movlw	3
  1703     0501                     u2895:
  1704     0501  35ED               	lslf	??_ReArmInterface,f
  1705     0502  0B89               	decfsz	9,f
  1706     0503  2D01               	goto	u2895
  1707     0504  086D               	movf	??_ReArmInterface,w
  1708     0505  3E28               	addlw	40
  1709     0506  0086               	movwf	6
  1710     0507  0187               	clrf	7
  1711     0508  3088               	movlw	136
  1712     0509  0081               	movwf	1
  1713     050A  2D17               	goto	l212
  1714     050B                     l2487:
  1715                           
  1716                           ;Usb.c: 211:             Interfaces[InterfaceNo + 1].Output.Stat = 0x80 | 0x40 | 0x08;
  1717     050B  086E               	movf	ReArmInterface@InterfaceNo,w
  1718     050C  00ED               	movwf	??_ReArmInterface
  1719     050D  3003               	movlw	3
  1720     050E                     u2905:
  1721     050E  35ED               	lslf	??_ReArmInterface,f
  1722     050F  0B89               	decfsz	9,f
  1723     0510  2D0E               	goto	u2905
  1724     0511  086D               	movf	??_ReArmInterface,w
  1725     0512  3E28               	addlw	40
  1726     0513  0086               	movwf	6
  1727     0514  0187               	clrf	7
  1728     0515  30C8               	movlw	200
  1729     0516  0081               	movwf	1
  1730     0517                     l212:
  1731     0517  0008               	return
  1732     0518                     __end_of_ReArmInterface:
  1733                           
  1734                           	psect	text6
  1735     06CC                     __ptext6:	
  1736 ;; *************** function ___bmul *****************
  1737 ;; Defined at:
  1738 ;;		line 4 in file "/opt/microchip/xc8/v3.00/pic/sources/c99/common/Umul8.c"
  1739 ;; Parameters:    Size  Location     Type
  1740 ;;  multiplier      1    wreg     unsigned char 
  1741 ;;  multiplicand    1    0[BANK0 ] unsigned char 
  1742 ;; Auto vars:     Size  Location     Type
  1743 ;;  multiplier      1    2[BANK0 ] unsigned char 
  1744 ;;  product         1    1[BANK0 ] unsigned char 
  1745 ;; Return value:  Size  Location     Type
  1746 ;;                  1    wreg      unsigned char 
  1747 ;; Registers used:
  1748 ;;		wreg, status,2, status,0
  1749 ;; Tracked objects:
  1750 ;;		On entry : 0/0
  1751 ;;		On exit  : 0/0
  1752 ;;		Unchanged: 0/0
  1753 ;; Data sizes:     COMMON   BANK0   BANK1   BANK2   BANK3   BANK4   BANK5   BANK6   BANK7   BANK8   BANK9  BANK10  BANK1
      +1  BANK12
  1754 ;;      Params:         0       1       0       0       0       0       0       0       0       0       0       0       
      +0       0
  1755 ;;      Locals:         0       2       0       0       0       0       0       0       0       0       0       0       
      +0       0
  1756 ;;      Temps:          0       0       0       0       0       0       0       0       0       0       0       0       
      +0       0
  1757 ;;      Totals:         0       3       0       0       0       0       0       0       0       0       0       0       
      +0       0
  1758 ;;Total ram usage:        3 bytes
  1759 ;; Hardware stack levels used: 1
  1760 ;; Hardware stack levels required when called: 7
  1761 ;; This function calls:
  1762 ;;		Nothing
  1763 ;; This function is called by:
  1764 ;;		_ReArmInterface
  1765 ;;		_HIDSend
  1766 ;;		_HIDInitEndpoints
  1767 ;; This function uses a non-reentrant model
  1768 ;;
  1769                           
  1770     06CC                     ___bmul:	
  1771                           ;psect for function ___bmul
  1772                           
  1773                           
  1774                           ;incstack = 0
  1775                           ; Regs used in ___bmul: [wreg+status,2+status,0]
  1776                           ;___bmul@multiplier stored from wreg
  1777     06CC  0020               	movlb	0	; select bank0
  1778     06CD  00EC               	movwf	___bmul@multiplier
  1779     06CE                     l2465:
  1780     06CE  01EB               	clrf	___bmul@product
  1781     06CF                     l2467:
  1782     06CF  1C6C               	btfss	___bmul@multiplier,0
  1783     06D0  2ED2               	goto	u2821
  1784     06D1  2ED3               	goto	u2820
  1785     06D2                     u2821:
  1786     06D2  2ED5               	goto	l2471
  1787     06D3                     u2820:
  1788     06D3                     l2469:
  1789     06D3  086A               	movf	___bmul@multiplicand,w
  1790     06D4  07EB               	addwf	___bmul@product,f
  1791     06D5                     l2471:
  1792     06D5  1003               	clrc
  1793     06D6  0DEA               	rlf	___bmul@multiplicand,f
  1794     06D7                     l2473:
  1795     06D7  1003               	clrc
  1796     06D8  0CEC               	rrf	___bmul@multiplier,f
  1797     06D9  086C               	movf	___bmul@multiplier,w
  1798     06DA  1D03               	btfss	3,2
  1799     06DB  2EDD               	goto	u2831
  1800     06DC  2EDE               	goto	u2830
  1801     06DD                     u2831:
  1802     06DD  2ECF               	goto	l2467
  1803     06DE                     u2830:
  1804     06DE                     l2475:
  1805     06DE  086B               	movf	___bmul@product,w
  1806     06DF                     l507:
  1807     06DF  0008               	return
  1808     06E0                     __end_of___bmul:
  1809                           
  1810                           	psect	text7
  1811     0781                     __ptext7:	
  1812 ;; *************** function _ProcessIncommingData *****************
  1813 ;; Defined at:
  1814 ;;		line 177 in file "main.c"
  1815 ;; Parameters:    Size  Location     Type
  1816 ;;		None
  1817 ;; Auto vars:     Size  Location     Type
  1818 ;;		None
  1819 ;; Return value:  Size  Location     Type
  1820 ;;                  1    wreg      void 
  1821 ;; Registers used:
  1822 ;;		None
  1823 ;; Tracked objects:
  1824 ;;		On entry : 0/0
  1825 ;;		On exit  : 0/0
  1826 ;;		Unchanged: 0/0
  1827 ;; Data sizes:     COMMON   BANK0   BANK1   BANK2   BANK3   BANK4   BANK5   BANK6   BANK7   BANK8   BANK9  BANK10  BANK1
      +1  BANK12
  1828 ;;      Params:         0       0       0       0       0       0       0       0       0       0       0       0       
      +0       0
  1829 ;;      Locals:         0       0       0       0       0       0       0       0       0       0       0       0       
      +0       0
  1830 ;;      Temps:          0       0       0       0       0       0       0       0       0       0       0       0       
      +0       0
  1831 ;;      Totals:         0       0       0       0       0       0       0       0       0       0       0       0       
      +0       0
  1832 ;;Total ram usage:        0 bytes
  1833 ;; Hardware stack levels used: 1
  1834 ;; Hardware stack levels required when called: 7
  1835 ;; This function calls:
  1836 ;;		Nothing
  1837 ;; This function is called by:
  1838 ;;		_CheckUsb
  1839 ;; This function uses a non-reentrant model
  1840 ;;
  1841                           
  1842     0781                     _ProcessIncommingData:	
  1843                           ;psect for function _ProcessIncommingData
  1844                           
  1845     0781                     l94:	
  1846                           ;incstack = 0
  1847                           ; Regs used in _ProcessIncommingData: []
  1848                           
  1849     0781  0008               	return
  1850     0782                     __end_of_ProcessIncommingData:
  1851                           
  1852                           	psect	text8
  1853     0640                     __ptext8:	
  1854 ;; *************** function _IsUsbDataAvaialble *****************
  1855 ;; Defined at:
  1856 ;;		line 185 in file "Usb.c"
  1857 ;; Parameters:    Size  Location     Type
  1858 ;;  InterfaceNo     1    wreg     unsigned char 
  1859 ;; Auto vars:     Size  Location     Type
  1860 ;;  InterfaceNo     1    1[BANK0 ] unsigned char 
  1861 ;; Return value:  Size  Location     Type
  1862 ;;                  1    wreg      unsigned char 
  1863 ;; Registers used:
  1864 ;;		wreg, fsr1l, fsr1h, status,2, status,0
  1865 ;; Tracked objects:
  1866 ;;		On entry : 0/0
  1867 ;;		On exit  : 0/0
  1868 ;;		Unchanged: 0/0
  1869 ;; Data sizes:     COMMON   BANK0   BANK1   BANK2   BANK3   BANK4   BANK5   BANK6   BANK7   BANK8   BANK9  BANK10  BANK1
      +1  BANK12
  1870 ;;      Params:         0       0       0       0       0       0       0       0       0       0       0       0       
      +0       0
  1871 ;;      Locals:         0       1       0       0       0       0       0       0       0       0       0       0       
      +0       0
  1872 ;;      Temps:          0       1       0       0       0       0       0       0       0       0       0       0       
      +0       0
  1873 ;;      Totals:         0       2       0       0       0       0       0       0       0       0       0       0       
      +0       0
  1874 ;;Total ram usage:        2 bytes
  1875 ;; Hardware stack levels used: 1
  1876 ;; Hardware stack levels required when called: 7
  1877 ;; This function calls:
  1878 ;;		Nothing
  1879 ;; This function is called by:
  1880 ;;		_CheckUsb
  1881 ;; This function uses a non-reentrant model
  1882 ;;
  1883                           
  1884     0640                     _IsUsbDataAvaialble:	
  1885                           ;psect for function _IsUsbDataAvaialble
  1886                           
  1887                           
  1888                           ;incstack = 0
  1889                           ; Regs used in _IsUsbDataAvaialble: [wreg+fsr1l+fsr1h+status,2+status,0]
  1890                           ;IsUsbDataAvaialble@InterfaceNo stored from wreg
  1891     0640  0020               	movlb	0	; select bank0
  1892     0641  00EB               	movwf	IsUsbDataAvaialble@InterfaceNo
  1893     0642                     l2013:
  1894                           
  1895                           ;Usb.c: 185: BYTE IsUsbDataAvaialble(BYTE InterfaceNo);Usb.c: 186: {;Usb.c: 187:     if(
      +                          InterfaceNo >= 0x01) return 0;
  1896     0642  086B               	movf	IsUsbDataAvaialble@InterfaceNo,w
  1897     0643  1903               	btfsc	3,2
  1898     0644  2E46               	goto	u1951
  1899     0645  2E47               	goto	u1950
  1900     0646                     u1951:
  1901     0646  2E49               	goto	l2019
  1902     0647                     u1950:
  1903     0647                     l2015:
  1904     0647  3000               	movlw	0
  1905     0648  2E62               	goto	l205
  1906     0649                     l2019:
  1907                           
  1908                           ;Usb.c: 188:     if(!(Interfaces[InterfaceNo + 1].Output.Stat & 0x80))
  1909     0649  086B               	movf	IsUsbDataAvaialble@InterfaceNo,w
  1910     064A  00EA               	movwf	??_IsUsbDataAvaialble
  1911     064B  3003               	movlw	3
  1912     064C                     u1965:
  1913     064C  35EA               	lslf	??_IsUsbDataAvaialble,f
  1914     064D  0B89               	decfsz	9,f
  1915     064E  2E4C               	goto	u1965
  1916     064F  086A               	movf	??_IsUsbDataAvaialble,w
  1917     0650  3E28               	addlw	40
  1918     0651  0086               	movwf	6
  1919     0652  0187               	clrf	7
  1920     0653  1B81               	btfsc	1,7
  1921     0654  2E56               	goto	u1971
  1922     0655  2E57               	goto	u1970
  1923     0656                     u1971:
  1924     0656  2E47               	goto	l2015
  1925     0657                     u1970:
  1926     0657                     l2021:
  1927                           
  1928                           ;Usb.c: 189:     {;Usb.c: 190:         return Interfaces[InterfaceNo + 1].Output.Cnt;
  1929     0657  086B               	movf	IsUsbDataAvaialble@InterfaceNo,w
  1930     0658  00EA               	movwf	??_IsUsbDataAvaialble
  1931     0659  3003               	movlw	3
  1932     065A                     u1985:
  1933     065A  35EA               	lslf	??_IsUsbDataAvaialble,f
  1934     065B  0B89               	decfsz	9,f
  1935     065C  2E5A               	goto	u1985
  1936     065D  086A               	movf	??_IsUsbDataAvaialble,w
  1937     065E  3E29               	addlw	41
  1938     065F  0086               	movwf	6
  1939     0660  0187               	clrf	7
  1940     0661  0801               	movf	1,w
  1941     0662                     l205:
  1942     0662  0008               	return
  1943     0663                     __end_of_IsUsbDataAvaialble:
  1944                           
  1945                           	psect	text9
  1946     0728                     __ptext9:	
  1947 ;; *************** function _InitializeUSB *****************
  1948 ;; Defined at:
  1949 ;;		line 761 in file "Usb.c"
  1950 ;; Parameters:    Size  Location     Type
  1951 ;;		None
  1952 ;; Auto vars:     Size  Location     Type
  1953 ;;		None
  1954 ;; Return value:  Size  Location     Type
  1955 ;;                  1    wreg      void 
  1956 ;; Registers used:
  1957 ;;		status,2, status,0, pclath, cstack
  1958 ;; Tracked objects:
  1959 ;;		On entry : 0/0
  1960 ;;		On exit  : 0/0
  1961 ;;		Unchanged: 0/0
  1962 ;; Data sizes:     COMMON   BANK0   BANK1   BANK2   BANK3   BANK4   BANK5   BANK6   BANK7   BANK8   BANK9  BANK10  BANK1
      +1  BANK12
  1963 ;;      Params:         0       0       0       0       0       0       0       0       0       0       0       0       
      +0       0
  1964 ;;      Locals:         0       0       0       0       0       0       0       0       0       0       0       0       
      +0       0
  1965 ;;      Temps:          0       0       0       0       0       0       0       0       0       0       0       0       
      +0       0
  1966 ;;      Totals:         0       0       0       0       0       0       0       0       0       0       0       0       
      +0       0
  1967 ;;Total ram usage:        0 bytes
  1968 ;; Hardware stack levels used: 1
  1969 ;; Hardware stack levels required when called: 8
  1970 ;; This function calls:
  1971 ;;		_ResetPPBuffers
  1972 ;; This function is called by:
  1973 ;;		_main
  1974 ;; This function uses a non-reentrant model
  1975 ;;
  1976                           
  1977     0728                     _InitializeUSB:	
  1978                           ;psect for function _InitializeUSB
  1979                           
  1980     0728                     l2345:	
  1981                           ;incstack = 0
  1982                           ; Regs used in _InitializeUSB: [status,2+status,0+pclath+cstack]
  1983                           
  1984                           
  1985                           ;Usb.c: 763:     UCFG = 0x14;
  1986     0728  3014               	movlw	20
  1987     0729  003D               	movlb	29	; select bank29
  1988     072A  0091               	movwf	17	;volatile
  1989     072B                     l2347:
  1990                           
  1991                           ;Usb.c: 764:     DeviceState = 0x00;
  1992     072B  01FD               	clrf	_DeviceState
  1993                           
  1994                           ;Usb.c: 765:     RemoteWakeup = 0x00;
  1995     072C  0020               	movlb	0	; select bank0
  1996     072D  01BD               	clrf	_RemoteWakeup
  1997                           
  1998                           ;Usb.c: 766:     CurrentConfiguration = 0x00;
  1999     072E  01E3               	clrf	_CurrentConfiguration
  2000                           
  2001                           ;Usb.c: 767:     UADDR = 0;
  2002     072F  003D               	movlb	29	; select bank29
  2003     0730  0196               	clrf	22	;volatile
  2004                           
  2005                           ;Usb.c: 768:     UEIR = 0;
  2006     0731  0193               	clrf	19	;volatile
  2007     0732                     l2349:
  2008                           
  2009                           ;Usb.c: 769:     ResetPPBuffers();
  2010     0732  3187  277A  3187   	fcall	_ResetPPBuffers
  2011     0735                     l2351:
  2012                           
  2013                           ;Usb.c: 770:     UCONbits.PKTDIS = 0;
  2014     0735  003D               	movlb	29	; select bank29
  2015     0736  120E               	bcf	14,4	;volatile
  2016     0737                     l374:
  2017     0737  0008               	return
  2018     0738                     __end_of_InitializeUSB:
  2019                           
  2020                           	psect	text10
  2021     077A                     __ptext10:	
  2022 ;; *************** function _ResetPPBuffers *****************
  2023 ;; Defined at:
  2024 ;;		line 752 in file "Usb.c"
  2025 ;; Parameters:    Size  Location     Type
  2026 ;;		None
  2027 ;; Auto vars:     Size  Location     Type
  2028 ;;		None
  2029 ;; Return value:  Size  Location     Type
  2030 ;;                  1    wreg      void 
  2031 ;; Registers used:
  2032 ;;		None
  2033 ;; Tracked objects:
  2034 ;;		On entry : 0/0
  2035 ;;		On exit  : 0/0
  2036 ;;		Unchanged: 0/0
  2037 ;; Data sizes:     COMMON   BANK0   BANK1   BANK2   BANK3   BANK4   BANK5   BANK6   BANK7   BANK8   BANK9  BANK10  BANK1
      +1  BANK12
  2038 ;;      Params:         0       0       0       0       0       0       0       0       0       0       0       0       
      +0       0
  2039 ;;      Locals:         0       0       0       0       0       0       0       0       0       0       0       0       
      +0       0
  2040 ;;      Temps:          0       0       0       0       0       0       0       0       0       0       0       0       
      +0       0
  2041 ;;      Totals:         0       0       0       0       0       0       0       0       0       0       0       0       
      +0       0
  2042 ;;Total ram usage:        0 bytes
  2043 ;; Hardware stack levels used: 1
  2044 ;; Hardware stack levels required when called: 7
  2045 ;; This function calls:
  2046 ;;		Nothing
  2047 ;; This function is called by:
  2048 ;;		_InitializeUSB
  2049 ;; This function uses a non-reentrant model
  2050 ;;
  2051                           
  2052     077A                     _ResetPPBuffers:	
  2053                           ;psect for function _ResetPPBuffers
  2054                           
  2055     077A                     l369:	
  2056                           ;incstack = 0
  2057                           ; Regs used in _ResetPPBuffers: []
  2058                           ;Usb.c: 754:     do
  2059                           
  2060                           
  2061                           ;Usb.c: 755:     {;Usb.c: 756:         UCONbits.PPBRST = 1;
  2062     077A  003D               	movlb	29	; select bank29
  2063     077B  170E               	bsf	14,6	;volatile
  2064                           
  2065                           ;Usb.c: 757:  UCONbits.PPBRST = 0;
  2066     077C  130E               	bcf	14,6	;volatile
  2067     077D                     l371:
  2068     077D  0008               	return
  2069     077E                     __end_of_ResetPPBuffers:
  2070                           
  2071                           	psect	text11
  2072     0663                     __ptext11:	
  2073 ;; *************** function _InitializeSystem *****************
  2074 ;; Defined at:
  2075 ;;		line 92 in file "main.c"
  2076 ;; Parameters:    Size  Location     Type
  2077 ;;		None
  2078 ;; Auto vars:     Size  Location     Type
  2079 ;;		None
  2080 ;; Return value:  Size  Location     Type
  2081 ;;                  1    wreg      void 
  2082 ;; Registers used:
  2083 ;;		status,2
  2084 ;; Tracked objects:
  2085 ;;		On entry : 0/0
  2086 ;;		On exit  : 0/0
  2087 ;;		Unchanged: 0/0
  2088 ;; Data sizes:     COMMON   BANK0   BANK1   BANK2   BANK3   BANK4   BANK5   BANK6   BANK7   BANK8   BANK9  BANK10  BANK1
      +1  BANK12
  2089 ;;      Params:         0       0       0       0       0       0       0       0       0       0       0       0       
      +0       0
  2090 ;;      Locals:         0       0       0       0       0       0       0       0       0       0       0       0       
      +0       0
  2091 ;;      Temps:          0       0       0       0       0       0       0       0       0       0       0       0       
      +0       0
  2092 ;;      Totals:         0       0       0       0       0       0       0       0       0       0       0       0       
      +0       0
  2093 ;;Total ram usage:        0 bytes
  2094 ;; Hardware stack levels used: 1
  2095 ;; Hardware stack levels required when called: 7
  2096 ;; This function calls:
  2097 ;;		Nothing
  2098 ;; This function is called by:
  2099 ;;		_main
  2100 ;; This function uses a non-reentrant model
  2101 ;;
  2102                           
  2103     0663                     _InitializeSystem:	
  2104                           ;psect for function _InitializeSystem
  2105                           
  2106     0663                     l2295:	
  2107                           ;incstack = 0
  2108                           ; Regs used in _InitializeSystem: [status,2]
  2109                           
  2110                           
  2111                           ;main.c: 94:     ANSELA = 0x00;
  2112     0663  0023               	movlb	3	; select bank3
  2113     0664  018C               	clrf	12	;volatile
  2114                           
  2115                           ;main.c: 95:     ANSELC = 0x00;
  2116     0665  018E               	clrf	14	;volatile
  2117                           
  2118                           ;main.c: 96:     OSCTUNE = 0x00;
  2119     0666  0021               	movlb	1	; select bank1
  2120     0667  0198               	clrf	24	;volatile
  2121     0668                     l2297:
  2122                           
  2123                           ;main.c: 97:     OSCCON = 0xFC;
  2124     0668  30FC               	movlw	252
  2125     0669  0099               	movwf	25	;volatile
  2126     066A                     l2299:
  2127                           
  2128                           ;main.c: 98:     ACTCON = 0x90;
  2129     066A  3090               	movlw	144
  2130     066B  0027               	movlb	7	; select bank7
  2131     066C  009B               	movwf	27	;volatile
  2132     066D                     l2301:
  2133                           
  2134                           ;main.c: 99:     OPTION_REG = 0xC3;
  2135     066D  30C3               	movlw	195
  2136     066E  0021               	movlb	1	; select bank1
  2137     066F  0095               	movwf	21	;volatile
  2138     0670                     l2303:
  2139                           
  2140                           ;main.c: 104:     TRISAbits.TRISA5 = 1;
  2141     0670  168C               	bsf	12,5	;volatile
  2142     0671                     l2305:
  2143                           
  2144                           ;main.c: 105:     WPUAbits.WPUA5 = 1;
  2145     0671  0024               	movlb	4	; select bank4
  2146     0672  168C               	bsf	12,5	;volatile
  2147     0673                     l2307:
  2148                           
  2149                           ;main.c: 106:     TRISAbits.TRISA4 = 1;
  2150     0673  0021               	movlb	1	; select bank1
  2151     0674  160C               	bsf	12,4	;volatile
  2152     0675                     l2309:
  2153                           
  2154                           ;main.c: 107:     WPUAbits.WPUA4 = 1;
  2155     0675  0024               	movlb	4	; select bank4
  2156     0676  160C               	bsf	12,4	;volatile
  2157     0677                     l2311:
  2158                           
  2159                           ;main.c: 108:     OPTION_REGbits.nWPUEN = 0;
  2160     0677  0021               	movlb	1	; select bank1
  2161     0678  1395               	bcf	21,7	;volatile
  2162     0679                     l2313:
  2163                           
  2164                           ;main.c: 111:     TRISCbits.TRISC3 = 0;
  2165     0679  118E               	bcf	14,3	;volatile
  2166     067A                     l2315:
  2167                           
  2168                           ;main.c: 112:     LATCbits.LATC2 = 1;
  2169     067A  0022               	movlb	2	; select bank2
  2170     067B  150E               	bsf	14,2	;volatile
  2171     067C                     l2317:
  2172                           
  2173                           ;main.c: 113:     TRISCbits.TRISC2 = 0;
  2174     067C  0021               	movlb	1	; select bank1
  2175     067D  110E               	bcf	14,2	;volatile
  2176     067E                     l2319:
  2177                           
  2178                           ;main.c: 114:     LATCbits.LATC3 = 1;
  2179     067E  0022               	movlb	2	; select bank2
  2180     067F  158E               	bsf	14,3	;volatile
  2181                           
  2182                           ;main.c: 116:     Button1Status = 0;
  2183     0680  0020               	movlb	0	; select bank0
  2184     0681  01BF               	clrf	_Button1Status
  2185                           
  2186                           ;main.c: 117:     Button2Status = 0;
  2187     0682  01BE               	clrf	_Button2Status
  2188     0683                     l81:
  2189     0683  0008               	return
  2190     0684                     __end_of_InitializeSystem:
  2191                           
  2192                           	psect	text12
  2193     06B7                     __ptext12:	
  2194 ;; *************** function _EnableUSBModule *****************
  2195 ;; Defined at:
  2196 ;;		line 773 in file "Usb.c"
  2197 ;; Parameters:    Size  Location     Type
  2198 ;;		None
  2199 ;; Auto vars:     Size  Location     Type
  2200 ;;		None
  2201 ;; Return value:  Size  Location     Type
  2202 ;;                  1    wreg      void 
  2203 ;; Registers used:
  2204 ;;		status,2
  2205 ;; Tracked objects:
  2206 ;;		On entry : 0/0
  2207 ;;		On exit  : 0/0
  2208 ;;		Unchanged: 0/0
  2209 ;; Data sizes:     COMMON   BANK0   BANK1   BANK2   BANK3   BANK4   BANK5   BANK6   BANK7   BANK8   BANK9  BANK10  BANK1
      +1  BANK12
  2210 ;;      Params:         0       0       0       0       0       0       0       0       0       0       0       0       
      +0       0
  2211 ;;      Locals:         0       0       0       0       0       0       0       0       0       0       0       0       
      +0       0
  2212 ;;      Temps:          0       0       0       0       0       0       0       0       0       0       0       0       
      +0       0
  2213 ;;      Totals:         0       0       0       0       0       0       0       0       0       0       0       0       
      +0       0
  2214 ;;Total ram usage:        0 bytes
  2215 ;; Hardware stack levels used: 1
  2216 ;; Hardware stack levels required when called: 7
  2217 ;; This function calls:
  2218 ;;		Nothing
  2219 ;; This function is called by:
  2220 ;;		_main
  2221 ;; This function uses a non-reentrant model
  2222 ;;
  2223                           
  2224     06B7                     _EnableUSBModule:	
  2225                           ;psect for function _EnableUSBModule
  2226                           
  2227     06B7                     l2353:	
  2228                           ;incstack = 0
  2229                           ; Regs used in _EnableUSBModule: [status,2]
  2230                           
  2231                           
  2232                           ;Usb.c: 777:     if(UCONbits.USBEN == 0)
  2233     06B7  003D               	movlb	29	; select bank29
  2234     06B8  198E               	btfsc	14,3	;volatile
  2235     06B9  2EBB               	goto	u2611
  2236     06BA  2EBC               	goto	u2610
  2237     06BB                     u2611:
  2238     06BB  2EC1               	goto	l378
  2239     06BC                     u2610:
  2240     06BC                     l2355:
  2241                           
  2242                           ;Usb.c: 778:     {;Usb.c: 779:         UCON = 0;
  2243     06BC  018E               	clrf	14	;volatile
  2244                           
  2245                           ;Usb.c: 780:         UIE = 0;
  2246     06BD  0192               	clrf	18	;volatile
  2247     06BE                     l2357:
  2248                           
  2249                           ;Usb.c: 781:         UCONbits.USBEN = 1;
  2250     06BE  158E               	bsf	14,3	;volatile
  2251     06BF                     l2359:
  2252                           
  2253                           ;Usb.c: 782:         DeviceState = 0x01;
  2254     06BF  3001               	movlw	1
  2255     06C0  00FD               	movwf	_DeviceState
  2256     06C1                     l378:
  2257     06C1  1A8E               	btfsc	14,5	;volatile
  2258     06C2  2EC4               	goto	u2621
  2259     06C3  2EC5               	goto	u2620
  2260     06C4                     u2621:
  2261     06C4  2EC1               	goto	l378
  2262     06C5                     u2620:
  2263     06C5                     l2361:
  2264                           
  2265                           ;Usb.c: 789:     UIR = 0;
  2266     06C5  0190               	clrf	16	;volatile
  2267                           
  2268                           ;Usb.c: 790:     UIE = 0;
  2269     06C6  0192               	clrf	18	;volatile
  2270     06C7                     l2363:
  2271                           
  2272                           ;Usb.c: 791:     UIEbits.URSTIE = 1;
  2273     06C7  1412               	bsf	18,0	;volatile
  2274     06C8                     l2365:
  2275                           
  2276                           ;Usb.c: 792:     UIEbits.IDLEIE = 1;
  2277     06C8  1612               	bsf	18,4	;volatile
  2278     06C9                     l2367:
  2279                           
  2280                           ;Usb.c: 793:     DeviceState = 0x02;
  2281     06C9  3002               	movlw	2
  2282     06CA  00FD               	movwf	_DeviceState
  2283     06CB                     l381:
  2284     06CB  0008               	return
  2285     06CC                     __end_of_EnableUSBModule:
  2286                           
  2287                           	psect	text13
  2288     0750                     __ptext13:	
  2289 ;; *************** function _EnableInterrupts *****************
  2290 ;; Defined at:
  2291 ;;		line 120 in file "main.c"
  2292 ;; Parameters:    Size  Location     Type
  2293 ;;		None
  2294 ;; Auto vars:     Size  Location     Type
  2295 ;;		None
  2296 ;; Return value:  Size  Location     Type
  2297 ;;                  1    wreg      void 
  2298 ;; Registers used:
  2299 ;;		None
  2300 ;; Tracked objects:
  2301 ;;		On entry : 0/0
  2302 ;;		On exit  : 0/0
  2303 ;;		Unchanged: 0/0
  2304 ;; Data sizes:     COMMON   BANK0   BANK1   BANK2   BANK3   BANK4   BANK5   BANK6   BANK7   BANK8   BANK9  BANK10  BANK1
      +1  BANK12
  2305 ;;      Params:         0       0       0       0       0       0       0       0       0       0       0       0       
      +0       0
  2306 ;;      Locals:         0       0       0       0       0       0       0       0       0       0       0       0       
      +0       0
  2307 ;;      Temps:          0       0       0       0       0       0       0       0       0       0       0       0       
      +0       0
  2308 ;;      Totals:         0       0       0       0       0       0       0       0       0       0       0       0       
      +0       0
  2309 ;;Total ram usage:        0 bytes
  2310 ;; Hardware stack levels used: 1
  2311 ;; Hardware stack levels required when called: 7
  2312 ;; This function calls:
  2313 ;;		Nothing
  2314 ;; This function is called by:
  2315 ;;		_main
  2316 ;; This function uses a non-reentrant model
  2317 ;;
  2318                           
  2319     0750                     _EnableInterrupts:	
  2320                           ;psect for function _EnableInterrupts
  2321                           
  2322     0750                     l2321:	
  2323                           ;incstack = 0
  2324                           ; Regs used in _EnableInterrupts: []
  2325                           
  2326                           
  2327                           ;main.c: 122:     UIE = 0x4B;
  2328     0750  304B               	movlw	75
  2329     0751  003D               	movlb	29	; select bank29
  2330     0752  0092               	movwf	18	;volatile
  2331                           
  2332                           ;main.c: 123:     INTCONbits.PEIE = 1;
  2333     0753  170B               	bsf	11,6	;volatile
  2334                           
  2335                           ;main.c: 124:     INTCONbits.GIE = 1;
  2336     0754  178B               	bsf	11,7	;volatile
  2337                           
  2338                           ;main.c: 125:     PIE2bits.USBIE = 1;
  2339     0755  0021               	movlb	1	; select bank1
  2340     0756  1512               	bsf	18,2	;volatile
  2341     0757                     l84:
  2342     0757  0008               	return
  2343     0758                     __end_of_EnableInterrupts:
  2344                           
  2345                           	psect	intentry
  2346     0004                     __pintentry:	
  2347 ;; *************** function _ISRCode *****************
  2348 ;; Defined at:
  2349 ;;		line 87 in file "main.c"
  2350 ;; Parameters:    Size  Location     Type
  2351 ;;		None
  2352 ;; Auto vars:     Size  Location     Type
  2353 ;;		None
  2354 ;; Return value:  Size  Location     Type
  2355 ;;                  1    wreg      void 
  2356 ;; Registers used:
  2357 ;;		wreg, fsr0l, fsr0h, fsr1l, fsr1h, status,2, status,0, pclath, cstack
  2358 ;; Tracked objects:
  2359 ;;		On entry : 0/0
  2360 ;;		On exit  : 0/0
  2361 ;;		Unchanged: 0/0
  2362 ;; Data sizes:     COMMON   BANK0   BANK1   BANK2   BANK3   BANK4   BANK5   BANK6   BANK7   BANK8   BANK9  BANK10  BANK1
      +1  BANK12
  2363 ;;      Params:         0       0       0       0       0       0       0       0       0       0       0       0       
      +0       0
  2364 ;;      Locals:         0       0       0       0       0       0       0       0       0       0       0       0       
      +0       0
  2365 ;;      Temps:          0       0       0       0       0       0       0       0       0       0       0       0       
      +0       0
  2366 ;;      Totals:         0       0       0       0       0       0       0       0       0       0       0       0       
      +0       0
  2367 ;;Total ram usage:        0 bytes
  2368 ;; Hardware stack levels used: 1
  2369 ;; Hardware stack levels required when called: 6
  2370 ;; This function calls:
  2371 ;;		_ProcessUSBTransactions
  2372 ;; This function is called by:
  2373 ;;		Interrupt level 1
  2374 ;; This function uses a non-reentrant model
  2375 ;;
  2376                           
  2377     0004                     _ISRCode:
  2378                           
  2379                           ;incstack = 0
  2380     0004  147E               	bsf	int$flags,0	;set compiler interrupt flag (level 1)
  2381                           
  2382                           ; Regs used in _ISRCode: [wreg-fsr1h+status,2+status,0+pclath+cstack]
  2383     0005  3180               	pagesel	$
  2384     0006                     i1l2693:
  2385                           
  2386                           ;main.c: 89:     if (PIR2bits.USBIF) ProcessUSBTransactions();
  2387     0006  0020               	movlb	0	; select bank0
  2388     0007  1D12               	btfss	18,2	;volatile
  2389     0008  280A               	goto	u338_21
  2390     0009  280B               	goto	u338_20
  2391     000A                     u338_21:
  2392     000A  280E               	goto	i1l78
  2393     000B                     u338_20:
  2394     000B                     i1l2695:
  2395     000B  3181  2140  3180   	fcall	_ProcessUSBTransactions
  2396     000E                     i1l78:
  2397     000E  107E               	bcf	int$flags,0	;clear compiler interrupt flag (level 1)
  2398     000F  0009               	retfie
  2399     0010                     __end_of_ISRCode:
  2400                           
  2401                           	psect	text15
  2402     0140                     __ptext15:	
  2403 ;; *************** function _ProcessUSBTransactions *****************
  2404 ;; Defined at:
  2405 ;;		line 859 in file "Usb.c"
  2406 ;; Parameters:    Size  Location     Type
  2407 ;;		None
  2408 ;; Auto vars:     Size  Location     Type
  2409 ;;		None
  2410 ;; Return value:  Size  Location     Type
  2411 ;;                  1    wreg      void 
  2412 ;; Registers used:
  2413 ;;		wreg, fsr0l, fsr0h, fsr1l, fsr1h, status,2, status,0, pclath, cstack
  2414 ;; Tracked objects:
  2415 ;;		On entry : 0/0
  2416 ;;		On exit  : 0/0
  2417 ;;		Unchanged: 0/0
  2418 ;; Data sizes:     COMMON   BANK0   BANK1   BANK2   BANK3   BANK4   BANK5   BANK6   BANK7   BANK8   BANK9  BANK10  BANK1
      +1  BANK12
  2419 ;;      Params:         0       0       0       0       0       0       0       0       0       0       0       0       
      +0       0
  2420 ;;      Locals:         0       0       0       0       0       0       0       0       0       0       0       0       
      +0       0
  2421 ;;      Temps:          0       0       0       0       0       0       0       0       0       0       0       0       
      +0       0
  2422 ;;      Totals:         0       0       0       0       0       0       0       0       0       0       0       0       
      +0       0
  2423 ;;Total ram usage:        0 bytes
  2424 ;; Hardware stack levels used: 1
  2425 ;; Hardware stack levels required when called: 5
  2426 ;; This function calls:
  2427 ;;		_BusReset
  2428 ;;		_ProcessControlTransfer
  2429 ;;		_Stall
  2430 ;;		_StartOfFrame
  2431 ;;		_Suspend
  2432 ;;		_UnSuspend
  2433 ;; This function is called by:
  2434 ;;		_ISRCode
  2435 ;; This function uses a non-reentrant model
  2436 ;;
  2437                           
  2438     0140                     _ProcessUSBTransactions:	
  2439                           ;psect for function _ProcessUSBTransactions
  2440                           
  2441     0140                     i1l2593:	
  2442                           ;incstack = 0
  2443                           ; Regs used in _ProcessUSBTransactions: [wreg-fsr1h+status,2+status,0+pclath+cstack]
  2444                           
  2445                           
  2446                           ;Usb.c: 862:     if(DeviceState == 0x00)
  2447     0140  087D               	movf	_DeviceState,w
  2448     0141  1D03               	btfss	3,2
  2449     0142  2944               	goto	u313_21
  2450     0143  2945               	goto	u313_20
  2451     0144                     u313_21:
  2452     0144  294A               	goto	i1l403
  2453     0145                     u313_20:
  2454     0145                     i1l2595:
  2455                           
  2456                           ;Usb.c: 863:     {;Usb.c: 864:         UIR = 0;
  2457     0145  003D               	movlb	29	; select bank29
  2458     0146  0190               	clrf	16	;volatile
  2459     0147                     i1l2597:
  2460                           
  2461                           ;Usb.c: 865:         PIR2bits.USBIF = 0;
  2462     0147  0020               	movlb	0	; select bank0
  2463     0148  1112               	bcf	18,2	;volatile
  2464     0149  29BF               	goto	i1l404
  2465     014A                     i1l403:	
  2466                           ;Usb.c: 867:     }
  2467                           
  2468                           
  2469                           ;Usb.c: 870:     if(UIRbits.ACTVIF && UIEbits.ACTVIE)
  2470     014A  003D               	movlb	29	; select bank29
  2471     014B  1D10               	btfss	16,2	;volatile
  2472     014C  294E               	goto	u314_21
  2473     014D  294F               	goto	u314_20
  2474     014E                     u314_21:
  2475     014E  2959               	goto	i1l2607
  2476     014F                     u314_20:
  2477     014F                     i1l2601:
  2478     014F  1D12               	btfss	18,2	;volatile
  2479     0150  2952               	goto	u315_21
  2480     0151  2953               	goto	u315_20
  2481     0152                     u315_21:
  2482     0152  2959               	goto	i1l2607
  2483     0153                     u315_20:
  2484     0153                     i1l2603:
  2485                           
  2486                           ;Usb.c: 871:     {;Usb.c: 872:         UnSuspend();
  2487     0153  3187  276A  3181   	fcall	_UnSuspend
  2488     0156                     i1l2605:
  2489                           
  2490                           ;Usb.c: 873:  UIR &= ~(0x04);
  2491     0156  30FB               	movlw	251
  2492     0157  003D               	movlb	29	; select bank29
  2493     0158  0590               	andwf	16,f	;volatile
  2494     0159                     i1l2607:
  2495                           
  2496                           ;Usb.c: 878:     if(UCONbits.SUSPND == 1)
  2497     0159  1C8E               	btfss	14,1	;volatile
  2498     015A  295C               	goto	u316_21
  2499     015B  295D               	goto	u316_20
  2500     015C                     u316_21:
  2501     015C  2961               	goto	i1l406
  2502     015D                     u316_20:
  2503     015D                     i1l2609:
  2504                           
  2505                           ;Usb.c: 879:     {;Usb.c: 880:         UIR = 0;
  2506     015D  0190               	clrf	16	;volatile
  2507     015E                     i1l2611:
  2508                           
  2509                           ;Usb.c: 881:         PIR2bits.USBIF = 0;
  2510     015E  0020               	movlb	0	; select bank0
  2511     015F  1112               	bcf	18,2	;volatile
  2512     0160  29BF               	goto	i1l404
  2513     0161                     i1l406:	
  2514                           ;Usb.c: 883:     }
  2515                           
  2516                           
  2517                           ;Usb.c: 886:     if (UIRbits.URSTIF && UIEbits.URSTIE)
  2518     0161  1C10               	btfss	16,0	;volatile
  2519     0162  2964               	goto	u317_21
  2520     0163  2965               	goto	u317_20
  2521     0164                     u317_21:
  2522     0164  296F               	goto	i1l2621
  2523     0165                     u317_20:
  2524     0165                     i1l2615:
  2525     0165  1C12               	btfss	18,0	;volatile
  2526     0166  2968               	goto	u318_21
  2527     0167  2969               	goto	u318_20
  2528     0168                     u318_21:
  2529     0168  296F               	goto	i1l2621
  2530     0169                     u318_20:
  2531     0169                     i1l2617:
  2532                           
  2533                           ;Usb.c: 887:     {;Usb.c: 888:         BusReset();
  2534     0169  3186  2684  3181   	fcall	_BusReset
  2535     016C                     i1l2619:
  2536                           
  2537                           ;Usb.c: 889:      UIR &= ~(0x01);
  2538     016C  30FE               	movlw	254
  2539     016D  003D               	movlb	29	; select bank29
  2540     016E  0590               	andwf	16,f	;volatile
  2541     016F                     i1l2621:
  2542                           
  2543                           ;Usb.c: 892:     if (UIRbits.IDLEIF && UIEbits.IDLEIE)
  2544     016F  1E10               	btfss	16,4	;volatile
  2545     0170  2972               	goto	u319_21
  2546     0171  2973               	goto	u319_20
  2547     0172                     u319_21:
  2548     0172  297D               	goto	i1l2629
  2549     0173                     u319_20:
  2550     0173                     i1l2623:
  2551     0173  1E12               	btfss	18,4	;volatile
  2552     0174  2976               	goto	u320_21
  2553     0175  2977               	goto	u320_20
  2554     0176                     u320_21:
  2555     0176  297D               	goto	i1l2629
  2556     0177                     u320_20:
  2557     0177                     i1l2625:
  2558                           
  2559                           ;Usb.c: 893:     {;Usb.c: 895:         Suspend();
  2560     0177  3187  2770  3181   	fcall	_Suspend
  2561     017A                     i1l2627:
  2562                           
  2563                           ;Usb.c: 896:      UIR &= ~(0x10);
  2564     017A  30EF               	movlw	239
  2565     017B  003D               	movlb	29	; select bank29
  2566     017C  0590               	andwf	16,f	;volatile
  2567     017D                     i1l2629:
  2568                           
  2569                           ;Usb.c: 899:     if (UIRbits.SOFIF && UIEbits.SOFIE)
  2570     017D  1F10               	btfss	16,6	;volatile
  2571     017E  2980               	goto	u321_21
  2572     017F  2981               	goto	u321_20
  2573     0180                     u321_21:
  2574     0180  298B               	goto	i1l2637
  2575     0181                     u321_20:
  2576     0181                     i1l2631:
  2577     0181  1F12               	btfss	18,6	;volatile
  2578     0182  2984               	goto	u322_21
  2579     0183  2985               	goto	u322_20
  2580     0184                     u322_21:
  2581     0184  298B               	goto	i1l2637
  2582     0185                     u322_20:
  2583     0185                     i1l2633:
  2584                           
  2585                           ;Usb.c: 900:     {;Usb.c: 901:         StartOfFrame();
  2586     0185  3187  277E  3181   	fcall	_StartOfFrame
  2587     0188                     i1l2635:
  2588                           
  2589                           ;Usb.c: 902:         UIR &= ~(0x40);
  2590     0188  30BF               	movlw	191
  2591     0189  003D               	movlb	29	; select bank29
  2592     018A  0590               	andwf	16,f	;volatile
  2593     018B                     i1l2637:
  2594                           
  2595                           ;Usb.c: 905:     if (UIRbits.STALLIF && UIEbits.STALLIE)
  2596     018B  1E90               	btfss	16,5	;volatile
  2597     018C  298E               	goto	u323_21
  2598     018D  298F               	goto	u323_20
  2599     018E                     u323_21:
  2600     018E  2999               	goto	i1l2645
  2601     018F                     u323_20:
  2602     018F                     i1l2639:
  2603     018F  1E92               	btfss	18,5	;volatile
  2604     0190  2992               	goto	u324_21
  2605     0191  2993               	goto	u324_20
  2606     0192                     u324_21:
  2607     0192  2999               	goto	i1l2645
  2608     0193                     u324_20:
  2609     0193                     i1l2641:
  2610                           
  2611                           ;Usb.c: 906:     {;Usb.c: 907:         Stall();
  2612     0193  3187  2738  3181   	fcall	_Stall
  2613     0196                     i1l2643:
  2614                           
  2615                           ;Usb.c: 908:         UIR &= ~(0x20);
  2616     0196  30DF               	movlw	223
  2617     0197  003D               	movlb	29	; select bank29
  2618     0198  0590               	andwf	16,f	;volatile
  2619     0199                     i1l2645:
  2620                           
  2621                           ;Usb.c: 911:     if (UIRbits.UERRIF && UIEbits.UERRIE)
  2622     0199  1C90               	btfss	16,1	;volatile
  2623     019A  299C               	goto	u325_21
  2624     019B  299D               	goto	u325_20
  2625     019C                     u325_21:
  2626     019C  29A5               	goto	i1l2655
  2627     019D                     u325_20:
  2628     019D                     i1l2647:
  2629     019D  1C92               	btfss	18,1	;volatile
  2630     019E  29A0               	goto	u326_21
  2631     019F  29A1               	goto	u326_20
  2632     01A0                     u326_21:
  2633     01A0  29A5               	goto	i1l2655
  2634     01A1                     u326_20:
  2635     01A1                     i1l2649:
  2636                           
  2637                           ;Usb.c: 912:     {;Usb.c: 915:         UIRbits.UERRIF = 0;
  2638     01A1  1090               	bcf	16,1	;volatile
  2639     01A2                     i1l2651:
  2640                           
  2641                           ;Usb.c: 916:         UEIR = 0 ;
  2642     01A2  0193               	clrf	19	;volatile
  2643     01A3                     i1l2653:
  2644                           
  2645                           ;Usb.c: 917:         UIR &= ~(0x02);
  2646     01A3  30FD               	movlw	253
  2647     01A4  0590               	andwf	16,f	;volatile
  2648     01A5                     i1l2655:
  2649                           
  2650                           ;Usb.c: 921:     if (DeviceState < 0x03)
  2651     01A5  3003               	movlw	3
  2652     01A6  027D               	subwf	_DeviceState,w
  2653     01A7  1803               	skipnc
  2654     01A8  29AA               	goto	u327_21
  2655     01A9  29AB               	goto	u327_20
  2656     01AA                     u327_21:
  2657     01AA  29AF               	goto	i1l412
  2658     01AB                     u327_20:
  2659     01AB                     i1l2657:
  2660                           
  2661                           ;Usb.c: 922:     {;Usb.c: 923:         UIR = 0;
  2662     01AB  0190               	clrf	16	;volatile
  2663     01AC                     i1l2659:
  2664                           
  2665                           ;Usb.c: 924:         PIR2bits.USBIF = 0;
  2666     01AC  0020               	movlb	0	; select bank0
  2667     01AD  1112               	bcf	18,2	;volatile
  2668     01AE  29BF               	goto	i1l404
  2669     01AF                     i1l412:	
  2670                           ;Usb.c: 926:     }
  2671                           
  2672                           
  2673                           ;Usb.c: 929:     if(UIRbits.TRNIF && UIEbits.TRNIE)
  2674     01AF  1D90               	btfss	16,3	;volatile
  2675     01B0  29B2               	goto	u328_21
  2676     01B1  29B3               	goto	u328_20
  2677     01B2                     u328_21:
  2678     01B2  29BD               	goto	i1l2669
  2679     01B3                     u328_20:
  2680     01B3                     i1l2663:
  2681     01B3  1D92               	btfss	18,3	;volatile
  2682     01B4  29B6               	goto	u329_21
  2683     01B5  29B7               	goto	u329_20
  2684     01B6                     u329_21:
  2685     01B6  29BD               	goto	i1l2669
  2686     01B7                     u329_20:
  2687     01B7                     i1l2665:
  2688                           
  2689                           ;Usb.c: 930:     {;Usb.c: 931:         ProcessControlTransfer();
  2690     01B7  3183  2301  3181   	fcall	_ProcessControlTransfer
  2691     01BA                     i1l2667:
  2692                           
  2693                           ;Usb.c: 932:         UIR &= ~(0x08);
  2694     01BA  30F7               	movlw	247
  2695     01BB  003D               	movlb	29	; select bank29
  2696     01BC  0590               	andwf	16,f	;volatile
  2697     01BD                     i1l2669:
  2698                           
  2699                           ;Usb.c: 934:     PIR2bits.USBIF = 0;
  2700     01BD  0020               	movlb	0	; select bank0
  2701     01BE  1112               	bcf	18,2	;volatile
  2702     01BF                     i1l404:
  2703     01BF  0008               	return
  2704     01C0                     __end_of_ProcessUSBTransactions:
  2705                           
  2706                           	psect	text16
  2707     076A                     __ptext16:	
  2708 ;; *************** function _UnSuspend *****************
  2709 ;; Defined at:
  2710 ;;		line 797 in file "Usb.c"
  2711 ;; Parameters:    Size  Location     Type
  2712 ;;		None
  2713 ;; Auto vars:     Size  Location     Type
  2714 ;;		None
  2715 ;; Return value:  Size  Location     Type
  2716 ;;                  1    wreg      void 
  2717 ;; Registers used:
  2718 ;;		wreg, status,2, status,0
  2719 ;; Tracked objects:
  2720 ;;		On entry : 0/0
  2721 ;;		On exit  : 0/0
  2722 ;;		Unchanged: 0/0
  2723 ;; Data sizes:     COMMON   BANK0   BANK1   BANK2   BANK3   BANK4   BANK5   BANK6   BANK7   BANK8   BANK9  BANK10  BANK1
      +1  BANK12
  2724 ;;      Params:         0       0       0       0       0       0       0       0       0       0       0       0       
      +0       0
  2725 ;;      Locals:         0       0       0       0       0       0       0       0       0       0       0       0       
      +0       0
  2726 ;;      Temps:          0       0       0       0       0       0       0       0       0       0       0       0       
      +0       0
  2727 ;;      Totals:         0       0       0       0       0       0       0       0       0       0       0       0       
      +0       0
  2728 ;;Total ram usage:        0 bytes
  2729 ;; Hardware stack levels used: 1
  2730 ;; This function calls:
  2731 ;;		Nothing
  2732 ;; This function is called by:
  2733 ;;		_ProcessUSBTransactions
  2734 ;; This function uses a non-reentrant model
  2735 ;;
  2736                           
  2737     076A                     _UnSuspend:	
  2738                           ;psect for function _UnSuspend
  2739                           
  2740     076A                     i1l1445:	
  2741                           ;incstack = 0
  2742                           ; Regs used in _UnSuspend: [wreg+status,2+status,0]
  2743                           
  2744                           
  2745                           ;Usb.c: 799:     UCONbits.SUSPND = 0;
  2746     076A  003D               	movlb	29	; select bank29
  2747     076B  108E               	bcf	14,1	;volatile
  2748                           
  2749                           ;Usb.c: 800:     UIEbits.ACTVIE = 0;
  2750     076C  1112               	bcf	18,2	;volatile
  2751     076D                     i1l1447:
  2752                           
  2753                           ;Usb.c: 801:     UIR &= 0xFB;
  2754     076D  30FB               	movlw	251
  2755     076E  0590               	andwf	16,f	;volatile
  2756     076F                     i1l384:
  2757     076F  0008               	return
  2758     0770                     __end_of_UnSuspend:
  2759                           
  2760                           	psect	text17
  2761     0770                     __ptext17:	
  2762 ;; *************** function _Suspend *****************
  2763 ;; Defined at:
  2764 ;;		line 825 in file "Usb.c"
  2765 ;; Parameters:    Size  Location     Type
  2766 ;;		None
  2767 ;; Auto vars:     Size  Location     Type
  2768 ;;		None
  2769 ;; Return value:  Size  Location     Type
  2770 ;;                  1    wreg      void 
  2771 ;; Registers used:
  2772 ;;		wreg, status,2, status,0
  2773 ;; Tracked objects:
  2774 ;;		On entry : 0/0
  2775 ;;		On exit  : 0/0
  2776 ;;		Unchanged: 0/0
  2777 ;; Data sizes:     COMMON   BANK0   BANK1   BANK2   BANK3   BANK4   BANK5   BANK6   BANK7   BANK8   BANK9  BANK10  BANK1
      +1  BANK12
  2778 ;;      Params:         0       0       0       0       0       0       0       0       0       0       0       0       
      +0       0
  2779 ;;      Locals:         0       0       0       0       0       0       0       0       0       0       0       0       
      +0       0
  2780 ;;      Temps:          0       0       0       0       0       0       0       0       0       0       0       0       
      +0       0
  2781 ;;      Totals:         0       0       0       0       0       0       0       0       0       0       0       0       
      +0       0
  2782 ;;Total ram usage:        0 bytes
  2783 ;; Hardware stack levels used: 1
  2784 ;; This function calls:
  2785 ;;		Nothing
  2786 ;; This function is called by:
  2787 ;;		_ProcessUSBTransactions
  2788 ;; This function uses a non-reentrant model
  2789 ;;
  2790                           
  2791     0770                     _Suspend:	
  2792                           ;psect for function _Suspend
  2793                           
  2794     0770                     i1l1459:	
  2795                           ;incstack = 0
  2796                           ; Regs used in _Suspend: [wreg+status,2+status,0]
  2797                           
  2798                           
  2799                           ;Usb.c: 827:     UIEbits.ACTVIE = 1;
  2800     0770  003D               	movlb	29	; select bank29
  2801     0771  1512               	bsf	18,2	;volatile
  2802     0772                     i1l1461:
  2803                           
  2804                           ;Usb.c: 828:     UIR &= 0xEF;
  2805     0772  30EF               	movlw	239
  2806     0773  0590               	andwf	16,f	;volatile
  2807     0774                     i1l1463:
  2808                           
  2809                           ;Usb.c: 829:     UCONbits.SUSPND = 1;
  2810     0774  148E               	bsf	14,1	;volatile
  2811     0775                     i1l394:
  2812     0775  0008               	return
  2813     0776                     __end_of_Suspend:
  2814                           
  2815                           	psect	text18
  2816     077E                     __ptext18:	
  2817 ;; *************** function _StartOfFrame *****************
  2818 ;; Defined at:
  2819 ;;		line 806 in file "Usb.c"
  2820 ;; Parameters:    Size  Location     Type
  2821 ;;		None
  2822 ;; Auto vars:     Size  Location     Type
  2823 ;;		None
  2824 ;; Return value:  Size  Location     Type
  2825 ;;                  1    wreg      void 
  2826 ;; Registers used:
  2827 ;;		None
  2828 ;; Tracked objects:
  2829 ;;		On entry : 0/0
  2830 ;;		On exit  : 0/0
  2831 ;;		Unchanged: 0/0
  2832 ;; Data sizes:     COMMON   BANK0   BANK1   BANK2   BANK3   BANK4   BANK5   BANK6   BANK7   BANK8   BANK9  BANK10  BANK1
      +1  BANK12
  2833 ;;      Params:         0       0       0       0       0       0       0       0       0       0       0       0       
      +0       0
  2834 ;;      Locals:         0       0       0       0       0       0       0       0       0       0       0       0       
      +0       0
  2835 ;;      Temps:          0       0       0       0       0       0       0       0       0       0       0       0       
      +0       0
  2836 ;;      Totals:         0       0       0       0       0       0       0       0       0       0       0       0       
      +0       0
  2837 ;;Total ram usage:        0 bytes
  2838 ;; Hardware stack levels used: 1
  2839 ;; This function calls:
  2840 ;;		Nothing
  2841 ;; This function is called by:
  2842 ;;		_ProcessUSBTransactions
  2843 ;; This function uses a non-reentrant model
  2844 ;;
  2845                           
  2846     077E                     _StartOfFrame:	
  2847                           ;psect for function _StartOfFrame
  2848                           
  2849     077E                     i1l1449:	
  2850                           ;incstack = 0
  2851                           ; Regs used in _StartOfFrame: []
  2852                           
  2853                           
  2854                           ;Usb.c: 809:     UIRbits.SOFIF = 0;
  2855     077E  003D               	movlb	29	; select bank29
  2856     077F  1310               	bcf	16,6	;volatile
  2857     0780                     i1l387:
  2858     0780  0008               	return
  2859     0781                     __end_of_StartOfFrame:
  2860                           
  2861                           	psect	text19
  2862     0738                     __ptext19:	
  2863 ;; *************** function _Stall *****************
  2864 ;; Defined at:
  2865 ;;		line 813 in file "Usb.c"
  2866 ;; Parameters:    Size  Location     Type
  2867 ;;		None
  2868 ;; Auto vars:     Size  Location     Type
  2869 ;;		None
  2870 ;; Return value:  Size  Location     Type
  2871 ;;                  1    wreg      void 
  2872 ;; Registers used:
  2873 ;;		status,2, status,0, pclath, cstack
  2874 ;; Tracked objects:
  2875 ;;		On entry : 0/0
  2876 ;;		On exit  : 0/0
  2877 ;;		Unchanged: 0/0
  2878 ;; Data sizes:     COMMON   BANK0   BANK1   BANK2   BANK3   BANK4   BANK5   BANK6   BANK7   BANK8   BANK9  BANK10  BANK1
      +1  BANK12
  2879 ;;      Params:         0       0       0       0       0       0       0       0       0       0       0       0       
      +0       0
  2880 ;;      Locals:         0       0       0       0       0       0       0       0       0       0       0       0       
      +0       0
  2881 ;;      Temps:          0       0       0       0       0       0       0       0       0       0       0       0       
      +0       0
  2882 ;;      Totals:         0       0       0       0       0       0       0       0       0       0       0       0       
      +0       0
  2883 ;;Total ram usage:        0 bytes
  2884 ;; Hardware stack levels used: 1
  2885 ;; Hardware stack levels required when called: 1
  2886 ;; This function calls:
  2887 ;;		_WaitForSetupStage
  2888 ;; This function is called by:
  2889 ;;		_ProcessUSBTransactions
  2890 ;; This function uses a non-reentrant model
  2891 ;;
  2892                           
  2893     0738                     _Stall:	
  2894                           ;psect for function _Stall
  2895                           
  2896     0738                     i1l2191:	
  2897                           ;incstack = 0
  2898                           ; Regs used in _Stall: [status,2+status,0+pclath+cstack]
  2899                           
  2900                           
  2901                           ;Usb.c: 815:     if(UEP0bits.EPSTALL == 1)
  2902     0738  003D               	movlb	29	; select bank29
  2903     0739  1C18               	btfss	24,0	;volatile
  2904     073A  2F3C               	goto	u234_21
  2905     073B  2F3D               	goto	u234_20
  2906     073C                     u234_21:
  2907     073C  2F42               	goto	i1l2197
  2908     073D                     u234_20:
  2909     073D                     i1l2193:
  2910                           
  2911                           ;Usb.c: 816:     {;Usb.c: 818:         WaitForSetupStage();
  2912     073D  3187  2744  3187   	fcall	_WaitForSetupStage
  2913     0740                     i1l2195:
  2914                           
  2915                           ;Usb.c: 819:         UEP0bits.EPSTALL = 0;
  2916     0740  003D               	movlb	29	; select bank29
  2917     0741  1018               	bcf	24,0	;volatile
  2918     0742                     i1l2197:
  2919                           
  2920                           ;Usb.c: 821:     UIRbits.STALLIF = 0;
  2921     0742  1290               	bcf	16,5	;volatile
  2922     0743                     i1l391:
  2923     0743  0008               	return
  2924     0744                     __end_of_Stall:
  2925                           
  2926                           	psect	text20
  2927     0301                     __ptext20:	
  2928 ;; *************** function _ProcessControlTransfer *****************
  2929 ;; Defined at:
  2930 ;;		line 692 in file "Usb.c"
  2931 ;; Parameters:    Size  Location     Type
  2932 ;;		None
  2933 ;; Auto vars:     Size  Location     Type
  2934 ;;  PID             1   12[COMMON] unsigned char 
  2935 ;; Return value:  Size  Location     Type
  2936 ;;                  1    wreg      void 
  2937 ;; Registers used:
  2938 ;;		wreg, fsr0l, fsr0h, fsr1l, fsr1h, status,2, status,0, pclath, cstack
  2939 ;; Tracked objects:
  2940 ;;		On entry : 0/0
  2941 ;;		On exit  : 0/0
  2942 ;;		Unchanged: 0/0
  2943 ;; Data sizes:     COMMON   BANK0   BANK1   BANK2   BANK3   BANK4   BANK5   BANK6   BANK7   BANK8   BANK9  BANK10  BANK1
      +1  BANK12
  2944 ;;      Params:         0       0       0       0       0       0       0       0       0       0       0       0       
      +0       0
  2945 ;;      Locals:         1       0       0       0       0       0       0       0       0       0       0       0       
      +0       0
  2946 ;;      Temps:          1       0       0       0       0       0       0       0       0       0       0       0       
      +0       0
  2947 ;;      Totals:         2       0       0       0       0       0       0       0       0       0       0       0       
      +0       0
  2948 ;;Total ram usage:        2 bytes
  2949 ;; Hardware stack levels used: 1
  2950 ;; Hardware stack levels required when called: 4
  2951 ;; This function calls:
  2952 ;;		_InDataStage
  2953 ;;		_OutDataStage
  2954 ;;		_SetupStage
  2955 ;;		_WaitForSetupStage
  2956 ;; This function is called by:
  2957 ;;		_ProcessUSBTransactions
  2958 ;; This function uses a non-reentrant model
  2959 ;;
  2960                           
  2961     0301                     _ProcessControlTransfer:	
  2962                           ;psect for function _ProcessControlTransfer
  2963                           
  2964     0301                     i1l2555:	
  2965                           ;incstack = 0
  2966                           ; Regs used in _ProcessControlTransfer: [wreg-fsr1h+status,2+status,0+pclath+cstack]
  2967                           
  2968                           
  2969                           ;Usb.c: 694:     if (USTAT == 0)
  2970     0301  003D               	movlb	29	; select bank29
  2971     0302  080F               	movf	15,w	;volatile
  2972     0303  1D03               	btfss	3,2
  2973     0304  2B06               	goto	u302_21
  2974     0305  2B07               	goto	u302_20
  2975     0306                     u302_21:
  2976     0306  2B32               	goto	i1l2571
  2977     0307                     u302_20:
  2978     0307                     i1l2557:
  2979                           
  2980                           ;Usb.c: 695:     {;Usb.c: 697:         BYTE PID = (Interfaces[0].Output.Stat & 0x3C) >> 
      +                          2;
  2981     0307  0020               	movlb	0	; select bank0
  2982     0308  0820               	movf	32,w	;volatile
  2983     0309  00FB               	movwf	??_ProcessControlTransfer
  2984     030A  3002               	movlw	2
  2985     030B                     u303_25:
  2986     030B  36FB               	lsrf	??_ProcessControlTransfer,f
  2987     030C  0B89               	decfsz	9,f
  2988     030D  2B0B               	goto	u303_25
  2989     030E  087B               	movf	??_ProcessControlTransfer,w
  2990     030F  390F               	andlw	15
  2991     0310  00FC               	movwf	ProcessControlTransfer@PID
  2992                           
  2993                           ;Usb.c: 698:         if (PID == 0x0D)
  2994     0311  300D               	movlw	13
  2995     0312  067C               	xorwf	ProcessControlTransfer@PID,w
  2996     0313  1D03               	btfss	3,2
  2997     0314  2B16               	goto	u304_21
  2998     0315  2B17               	goto	u304_20
  2999     0316                     u304_21:
  3000     0316  2B1B               	goto	i1l2561
  3001     0317                     u304_20:
  3002     0317                     i1l2559:
  3003                           
  3004                           ;Usb.c: 700:             SetupStage();
  3005     0317  3184  2423  3183   	fcall	_SetupStage
  3006     031A  2B62               	goto	i1l366
  3007     031B                     i1l2561:
  3008     031B  033A               	decf	_CtrlTransferStage,w
  3009     031C  1D03               	btfss	3,2
  3010     031D  2B1F               	goto	u305_21
  3011     031E  2B20               	goto	u305_20
  3012     031F                     u305_21:
  3013     031F  2B2E               	goto	i1l2569
  3014     0320                     u305_20:
  3015     0320                     i1l2563:
  3016                           
  3017                           ;Usb.c: 702:         {;Usb.c: 703:             OutDataStage();
  3018     0320  3185  2596  3183   	fcall	_OutDataStage
  3019     0323                     i1l2565:
  3020                           
  3021                           ;Usb.c: 704:             if(Interfaces[0].Output.Stat & 0x40)
  3022     0323  0020               	movlb	0	; select bank0
  3023     0324  1F20               	btfss	32,6	;volatile
  3024     0325  2B27               	goto	u306_21
  3025     0326  2B28               	goto	u306_20
  3026     0327                     u306_21:
  3027     0327  2B2B               	goto	i1l354
  3028     0328                     u306_20:
  3029     0328                     i1l2567:
  3030                           
  3031                           ;Usb.c: 705:                 Interfaces[0].Output.Stat = 0x80 | 0x08;
  3032     0328  3088               	movlw	136
  3033     0329  00A0               	movwf	32	;volatile
  3034     032A  2B62               	goto	i1l366
  3035     032B                     i1l354:	
  3036                           ;Usb.c: 706:             else
  3037                           
  3038                           
  3039                           ;Usb.c: 707:                 Interfaces[0].Output.Stat = 0x80 | 0x40 | 0x08;
  3040     032B  30C8               	movlw	200
  3041     032C  00A0               	movwf	32	;volatile
  3042     032D  2B62               	goto	i1l366
  3043     032E                     i1l2569:
  3044                           
  3045                           ;Usb.c: 710:         {;Usb.c: 712:             WaitForSetupStage();
  3046     032E  3187  2744  3183   	fcall	_WaitForSetupStage
  3047     0331  2B62               	goto	i1l366
  3048     0332                     i1l2571:
  3049     0332  3004               	movlw	4
  3050     0333  060F               	xorwf	15,w	;volatile
  3051     0334  1D03               	btfss	3,2
  3052     0335  2B37               	goto	u307_21
  3053     0336  2B38               	goto	u307_20
  3054     0337                     u307_21:
  3055     0337  2B62               	goto	i1l366
  3056     0338                     u307_20:
  3057     0338                     i1l2573:
  3058                           
  3059                           ;Usb.c: 717:     {;Usb.c: 719:         if ((UADDR == 0) && (DeviceState == 0x04))
  3060     0338  0816               	movf	22,w	;volatile
  3061     0339  1D03               	btfss	3,2
  3062     033A  2B3C               	goto	u308_21
  3063     033B  2B3D               	goto	u308_20
  3064     033C                     u308_21:
  3065     033C  2B4E               	goto	i1l2583
  3066     033D                     u308_20:
  3067     033D                     i1l2575:
  3068     033D  3004               	movlw	4
  3069     033E  067D               	xorwf	_DeviceState,w
  3070     033F  1D03               	btfss	3,2
  3071     0340  2B42               	goto	u309_21
  3072     0341  2B43               	goto	u309_20
  3073     0342                     u309_21:
  3074     0342  2B4E               	goto	i1l2583
  3075     0343                     u309_20:
  3076     0343                     i1l2577:
  3077                           
  3078                           ;Usb.c: 720:         {;Usb.c: 723:             UADDR = SetupPacket.wValue0;
  3079     0343  0020               	movlb	0	; select bank0
  3080     0344  0842               	movf	_SetupPacket+2,w	;volatile
  3081     0345  003D               	movlb	29	; select bank29
  3082     0346  0096               	movwf	22	;volatile
  3083     0347                     i1l2579:
  3084                           
  3085                           ;Usb.c: 724:             if(UADDR == 0)
  3086     0347  0816               	movf	22,w	;volatile
  3087     0348  1D03               	btfss	3,2
  3088     0349  2B4B               	goto	u310_21
  3089     034A  2B4C               	goto	u310_20
  3090     034B                     u310_21:
  3091     034B  2B4E               	goto	i1l2583
  3092     034C                     u310_20:
  3093     034C                     i1l2581:
  3094                           
  3095                           ;Usb.c: 727:                 DeviceState = 0x03;
  3096     034C  3003               	movlw	3
  3097     034D  00FD               	movwf	_DeviceState
  3098     034E                     i1l2583:
  3099                           
  3100                           ;Usb.c: 730:         if (CtrlTransferStage == 0x02)
  3101     034E  3002               	movlw	2
  3102     034F  0020               	movlb	0	; select bank0
  3103     0350  063A               	xorwf	_CtrlTransferStage,w
  3104     0351  1D03               	btfss	3,2
  3105     0352  2B54               	goto	u311_21
  3106     0353  2B55               	goto	u311_20
  3107     0354                     u311_21:
  3108     0354  2B2E               	goto	i1l2569
  3109     0355                     u311_20:
  3110     0355                     i1l2585:
  3111                           
  3112                           ;Usb.c: 731:         {;Usb.c: 733:             InDataStage();
  3113     0355  3182  229B  3183   	fcall	_InDataStage
  3114     0358                     i1l2587:
  3115                           
  3116                           ;Usb.c: 736:             if(Interfaces[0].Input.Stat & 0x40)
  3117     0358  0020               	movlb	0	; select bank0
  3118     0359  1F24               	btfss	36,6	;volatile
  3119     035A  2B5C               	goto	u312_21
  3120     035B  2B5D               	goto	u312_20
  3121     035C                     u312_21:
  3122     035C  2B60               	goto	i1l362
  3123     035D                     u312_20:
  3124     035D                     i1l2589:
  3125                           
  3126                           ;Usb.c: 737:                 Interfaces[0].Input.Stat = 0x80 | 0x08;
  3127     035D  3088               	movlw	136
  3128     035E  00A4               	movwf	36	;volatile
  3129     035F  2B62               	goto	i1l366
  3130     0360                     i1l362:	
  3131                           ;Usb.c: 738:             else
  3132                           
  3133                           
  3134                           ;Usb.c: 739:                 Interfaces[0].Input.Stat = 0x80 | 0x40 | 0x08;
  3135     0360  30C8               	movlw	200
  3136     0361  00A4               	movwf	36	;volatile
  3137     0362                     i1l366:
  3138     0362  0008               	return
  3139     0363                     __end_of_ProcessControlTransfer:
  3140                           
  3141                           	psect	text21
  3142     0423                     __ptext21:	
  3143 ;; *************** function _SetupStage *****************
  3144 ;; Defined at:
  3145 ;;		line 611 in file "Usb.c"
  3146 ;; Parameters:    Size  Location     Type
  3147 ;;		None
  3148 ;; Auto vars:     Size  Location     Type
  3149 ;;		None
  3150 ;; Return value:  Size  Location     Type
  3151 ;;                  1    wreg      void 
  3152 ;; Registers used:
  3153 ;;		wreg, fsr0l, fsr0h, fsr1l, fsr1h, status,2, status,0, pclath, cstack
  3154 ;; Tracked objects:
  3155 ;;		On entry : 0/0
  3156 ;;		On exit  : 0/0
  3157 ;;		Unchanged: 0/0
  3158 ;; Data sizes:     COMMON   BANK0   BANK1   BANK2   BANK3   BANK4   BANK5   BANK6   BANK7   BANK8   BANK9  BANK10  BANK1
      +1  BANK12
  3159 ;;      Params:         0       0       0       0       0       0       0       0       0       0       0       0       
      +0       0
  3160 ;;      Locals:         0       0       0       0       0       0       0       0       0       0       0       0       
      +0       0
  3161 ;;      Temps:          0       0       0       0       0       0       0       0       0       0       0       0       
      +0       0
  3162 ;;      Totals:         0       0       0       0       0       0       0       0       0       0       0       0       
      +0       0
  3163 ;;Total ram usage:        0 bytes
  3164 ;; Hardware stack levels used: 1
  3165 ;; Hardware stack levels required when called: 3
  3166 ;; This function calls:
  3167 ;;		_InDataStage
  3168 ;;		_ProcessHIDRequest
  3169 ;;		_ProcessStandardRequest
  3170 ;; This function is called by:
  3171 ;;		_ProcessControlTransfer
  3172 ;; This function uses a non-reentrant model
  3173 ;;
  3174                           
  3175     0423                     _SetupStage:	
  3176                           ;psect for function _SetupStage
  3177                           
  3178     0423                     i1l2489:	
  3179                           ;incstack = 0
  3180                           ; Regs used in _SetupStage: [wreg-fsr1h+status,2+status,0+pclath+cstack]
  3181                           
  3182                           
  3183                           ;Usb.c: 615:     Interfaces[0].Input.Stat &= ~0x80;
  3184     0423  307F               	movlw	127
  3185     0424  0020               	movlb	0	; select bank0
  3186     0425  05A4               	andwf	36,f	;volatile
  3187                           
  3188                           ;Usb.c: 616:     Interfaces[0].Output.Stat &= ~0x80;
  3189     0426  307F               	movlw	127
  3190     0427  05A0               	andwf	32,f	;volatile
  3191     0428                     i1l2491:
  3192                           
  3193                           ;Usb.c: 619:     CtrlTransferStage = 0x00;
  3194     0428  01BA               	clrf	_CtrlTransferStage
  3195     0429                     i1l2493:
  3196                           
  3197                           ;Usb.c: 620:     RequestHandled = 0;
  3198     0429  01B8               	clrf	_RequestHandled
  3199     042A                     i1l2495:
  3200                           
  3201                           ;Usb.c: 621:     HIDPostProcess = 0;
  3202     042A  01B9               	clrf	_HIDPostProcess
  3203     042B                     i1l2497:
  3204                           
  3205                           ;Usb.c: 622:     wCount = 0;
  3206     042B  01B0               	clrf	_wCount
  3207     042C  01B1               	clrf	_wCount+1
  3208     042D                     i1l2499:
  3209                           
  3210                           ;Usb.c: 625:     ProcessStandardRequest();
  3211     042D  3180  20BD  3184   	fcall	_ProcessStandardRequest
  3212     0430                     i1l2501:
  3213                           
  3214                           ;Usb.c: 628:     ProcessHIDRequest();
  3215     0430  3180  202F  3184   	fcall	_ProcessHIDRequest
  3216     0433                     i1l2503:
  3217                           
  3218                           ;Usb.c: 632:     if (!RequestHandled)
  3219     0433  0020               	movlb	0	; select bank0
  3220     0434  0838               	movf	_RequestHandled,w
  3221     0435  1D03               	btfss	3,2
  3222     0436  2C38               	goto	u291_21
  3223     0437  2C39               	goto	u291_20
  3224     0438                     u291_21:
  3225     0438  2C44               	goto	i1l339
  3226     0439                     u291_20:
  3227     0439                     i1l2505:
  3228                           
  3229                           ;Usb.c: 633:     {;Usb.c: 635:         Interfaces[0].Output.Cnt = 0x08;
  3230     0439  3008               	movlw	8
  3231     043A  00A1               	movwf	33	;volatile
  3232                           
  3233                           ;Usb.c: 636:         Interfaces[0].Output.ADDR = ((unsigned int)(((unsigned long)&SetupP
      +                          acket) & 0xFFFF));
  3234     043B  3000               	movlw	high _SetupPacket
  3235     043C  00A3               	movwf	35	;volatile
  3236     043D  3040               	movlw	low _SetupPacket
  3237     043E  00A2               	movwf	34	;volatile
  3238                           
  3239                           ;Usb.c: 637:         Interfaces[0].Output.Stat = 0x80 | 0x04;
  3240     043F  3084               	movlw	132
  3241     0440  00A0               	movwf	32	;volatile
  3242                           
  3243                           ;Usb.c: 638:         Interfaces[0].Input.Stat = 0x80 | 0x04;
  3244     0441  3084               	movlw	132
  3245     0442  00A4               	movwf	36	;volatile
  3246                           
  3247                           ;Usb.c: 639:     }
  3248     0443  2C78               	goto	i1l2535
  3249     0444                     i1l339:	
  3250                           ;Usb.c: 640:     else if (SetupPacket.bmRequestType & 0x80)
  3251                           
  3252     0444  1FC0               	btfss	_SetupPacket,7	;volatile
  3253     0445  2C47               	goto	u292_21
  3254     0446  2C48               	goto	u292_20
  3255     0447                     u292_21:
  3256     0447  2C6B               	goto	i1l341
  3257     0448                     u292_20:
  3258     0448                     i1l2507:
  3259                           
  3260                           ;Usb.c: 641:     {;Usb.c: 643:         if(SetupPacket.wLength < wCount)
  3261     0448  0831               	movf	_wCount+1,w
  3262     0449  0247               	subwf	_SetupPacket+7,w	;volatile
  3263     044A  1D03               	skipz
  3264     044B  2C4E               	goto	u293_25
  3265     044C  0830               	movf	_wCount,w
  3266     044D  0246               	subwf	_SetupPacket+6,w	;volatile
  3267     044E                     u293_25:
  3268     044E  1803               	skipnc
  3269     044F  2C51               	goto	u293_21
  3270     0450  2C52               	goto	u293_20
  3271     0451                     u293_21:
  3272     0451  2C56               	goto	i1l2511
  3273     0452                     u293_20:
  3274     0452                     i1l2509:
  3275                           
  3276                           ;Usb.c: 644:             wCount = SetupPacket.wLength;
  3277     0452  0847               	movf	_SetupPacket+7,w	;volatile
  3278     0453  00B1               	movwf	_wCount+1
  3279     0454  0846               	movf	_SetupPacket+6,w	;volatile
  3280     0455  00B0               	movwf	_wCount
  3281     0456                     i1l2511:
  3282                           
  3283                           ;Usb.c: 645:         InDataStage();
  3284     0456  3182  229B  3184   	fcall	_InDataStage
  3285     0459                     i1l2513:
  3286                           
  3287                           ;Usb.c: 646:         CtrlTransferStage = 0x02;
  3288     0459  3002               	movlw	2
  3289     045A  0020               	movlb	0	; select bank0
  3290     045B  00BA               	movwf	_CtrlTransferStage
  3291     045C                     i1l2515:
  3292                           
  3293                           ;Usb.c: 648:         Interfaces[0].Output.Cnt = 0x08;
  3294     045C  3008               	movlw	8
  3295     045D  00A1               	movwf	33	;volatile
  3296     045E                     i1l2517:
  3297                           
  3298                           ;Usb.c: 649:         Interfaces[0].Output.ADDR = ((unsigned int)(((unsigned long)&SetupP
      +                          acket) & 0xFFFF));
  3299     045E  3000               	movlw	high _SetupPacket
  3300     045F  00A3               	movwf	35	;volatile
  3301     0460  3040               	movlw	low _SetupPacket
  3302     0461  00A2               	movwf	34	;volatile
  3303     0462                     i1l2519:
  3304                           
  3305                           ;Usb.c: 650:         Interfaces[0].Output.Stat = 0x80;
  3306     0462  3080               	movlw	128
  3307     0463  00A0               	movwf	32	;volatile
  3308     0464                     i1l2521:
  3309                           
  3310                           ;Usb.c: 653:         Interfaces[0].Input.ADDR = ((unsigned int)(((unsigned long)&Control
      +                          TransferBuffer) & 0xFFFF));
  3311     0464  3049               	movlw	low _ControlTransferBuffer
  3312     0465  00A6               	movwf	38	;volatile
  3313     0466  3000               	movlw	high _ControlTransferBuffer
  3314     0467  00A7               	movwf	39	;volatile
  3315     0468                     i1l2523:
  3316                           
  3317                           ;Usb.c: 655:         Interfaces[0].Input.Stat = 0x80 | 0x40 | 0x08;
  3318     0468  30C8               	movlw	200
  3319     0469  00A4               	movwf	36	;volatile
  3320                           
  3321                           ;Usb.c: 656:     }
  3322     046A  2C78               	goto	i1l2535
  3323     046B                     i1l341:	
  3324                           ;Usb.c: 657:     else
  3325                           
  3326                           
  3327                           ;Usb.c: 658:     {;Usb.c: 660:         CtrlTransferStage = 0x01;
  3328     046B  3001               	movlw	1
  3329     046C  00BA               	movwf	_CtrlTransferStage
  3330     046D                     i1l2525:
  3331                           
  3332                           ;Usb.c: 663:         Interfaces[0].Input.Cnt = 0;
  3333     046D  01A5               	clrf	37	;volatile
  3334     046E                     i1l2527:
  3335                           
  3336                           ;Usb.c: 664:         Interfaces[0].Input.Stat = 0x80 | 0x40 | 0x08;
  3337     046E  30C8               	movlw	200
  3338     046F  00A4               	movwf	36	;volatile
  3339     0470                     i1l2529:
  3340                           
  3341                           ;Usb.c: 667:         Interfaces[0].Output.Cnt = 0x08;
  3342     0470  3008               	movlw	8
  3343     0471  00A1               	movwf	33	;volatile
  3344     0472                     i1l2531:
  3345                           
  3346                           ;Usb.c: 668:         Interfaces[0].Output.ADDR = ((unsigned int)(((unsigned long)&Contro
      +                          lTransferBuffer) & 0xFFFF));
  3347     0472  3049               	movlw	low _ControlTransferBuffer
  3348     0473  00A2               	movwf	34	;volatile
  3349     0474  3000               	movlw	high _ControlTransferBuffer
  3350     0475  00A3               	movwf	35	;volatile
  3351     0476                     i1l2533:
  3352                           
  3353                           ;Usb.c: 670:         Interfaces[0].Output.Stat = 0x80 | 0x40 | 0x08;
  3354     0476  30C8               	movlw	200
  3355     0477  00A0               	movwf	32	;volatile
  3356     0478                     i1l2535:
  3357                           
  3358                           ;Usb.c: 674:     UCONbits.PKTDIS = 0;
  3359     0478  003D               	movlb	29	; select bank29
  3360     0479  120E               	bcf	14,4	;volatile
  3361     047A                     i1l344:
  3362     047A  0008               	return
  3363     047B                     __end_of_SetupStage:
  3364                           
  3365                           	psect	text22
  3366     00BD                     __ptext22:	
  3367 ;; *************** function _ProcessStandardRequest *****************
  3368 ;; Defined at:
  3369 ;;		line 474 in file "Usb.c"
  3370 ;; Parameters:    Size  Location     Type
  3371 ;;		None
  3372 ;; Auto vars:     Size  Location     Type
  3373 ;;  request         1   10[COMMON] unsigned char 
  3374 ;; Return value:  Size  Location     Type
  3375 ;;                  1    wreg      void 
  3376 ;; Registers used:
  3377 ;;		wreg, fsr0l, fsr0h, fsr1l, fsr1h, status,2, status,0, pclath, cstack
  3378 ;; Tracked objects:
  3379 ;;		On entry : 0/0
  3380 ;;		On exit  : 0/0
  3381 ;;		Unchanged: 0/0
  3382 ;; Data sizes:     COMMON   BANK0   BANK1   BANK2   BANK3   BANK4   BANK5   BANK6   BANK7   BANK8   BANK9  BANK10  BANK1
      +1  BANK12
  3383 ;;      Params:         0       0       0       0       0       0       0       0       0       0       0       0       
      +0       0
  3384 ;;      Locals:         1       0       0       0       0       0       0       0       0       0       0       0       
      +0       0
  3385 ;;      Temps:          0       0       0       0       0       0       0       0       0       0       0       0       
      +0       0
  3386 ;;      Totals:         1       0       0       0       0       0       0       0       0       0       0       0       
      +0       0
  3387 ;;Total ram usage:        1 bytes
  3388 ;; Hardware stack levels used: 1
  3389 ;; Hardware stack levels required when called: 2
  3390 ;; This function calls:
  3391 ;;		_GetDescriptor
  3392 ;;		_GetStatus
  3393 ;;		_HIDInitEndpoints
  3394 ;;		_SetFeature
  3395 ;; This function is called by:
  3396 ;;		_SetupStage
  3397 ;; This function uses a non-reentrant model
  3398 ;;
  3399                           
  3400     00BD                     _ProcessStandardRequest:	
  3401                           ;psect for function _ProcessStandardRequest
  3402                           
  3403     00BD                     i1l2397:	
  3404                           ;incstack = 0
  3405                           ; Regs used in _ProcessStandardRequest: [wreg-fsr1h+status,2+status,0+pclath+cstack]
  3406                           
  3407                           
  3408                           ;Usb.c: 476:     BYTE request = SetupPacket.bRequest;
  3409     00BD  0020               	movlb	0	; select bank0
  3410     00BE  0841               	movf	_SetupPacket+1,w	;volatile
  3411     00BF  00FA               	movwf	ProcessStandardRequest@request
  3412     00C0                     i1l2399:
  3413                           
  3414                           ;Usb.c: 478:     if((SetupPacket.bmRequestType & 0x60) != 0x00)
  3415     00C0  0840               	movf	_SetupPacket,w	;volatile
  3416     00C1  3960               	andlw	96
  3417     00C2  1903               	btfsc	3,2
  3418     00C3  28C5               	goto	u270_21
  3419     00C4  28C6               	goto	u270_20
  3420     00C5                     u270_21:
  3421     00C5  28C7               	goto	i1l2403
  3422     00C6                     u270_20:
  3423     00C6  293F               	goto	i1l293
  3424     00C7                     i1l2403:
  3425                           
  3426                           ;Usb.c: 483:     if (request == 0x05)
  3427     00C7  3005               	movlw	5
  3428     00C8  067A               	xorwf	ProcessStandardRequest@request,w
  3429     00C9  1D03               	btfss	3,2
  3430     00CA  28CC               	goto	u271_21
  3431     00CB  28CD               	goto	u271_20
  3432     00CC                     u271_21:
  3433     00CC  28D4               	goto	i1l2409
  3434     00CD                     u271_20:
  3435     00CD                     i1l2405:
  3436                           
  3437                           ;Usb.c: 484:     {;Usb.c: 489:             RequestHandled = 1;
  3438     00CD  3001               	movlw	1
  3439     00CE  00B8               	movwf	_RequestHandled
  3440                           
  3441                           ;Usb.c: 490:             DeviceState = 0x04;
  3442     00CF  3004               	movlw	4
  3443     00D0  00FD               	movwf	_DeviceState
  3444     00D1                     i1l2407:
  3445                           
  3446                           ;Usb.c: 491:             DeviceAddress = SetupPacket.wValue0;
  3447     00D1  0842               	movf	_SetupPacket+2,w	;volatile
  3448     00D2  00BC               	movwf	_DeviceAddress
  3449                           
  3450                           ;Usb.c: 492:     }
  3451     00D3  293F               	goto	i1l293
  3452     00D4                     i1l2409:
  3453     00D4  3006               	movlw	6
  3454     00D5  067A               	xorwf	ProcessStandardRequest@request,w
  3455     00D6  1D03               	btfss	3,2
  3456     00D7  28D9               	goto	u272_21
  3457     00D8  28DA               	goto	u272_20
  3458     00D9                     u272_21:
  3459     00D9  28DE               	goto	i1l2413
  3460     00DA                     u272_20:
  3461     00DA                     i1l2411:
  3462                           
  3463                           ;Usb.c: 494:     {;Usb.c: 495:             GetDescriptor();
  3464     00DA  3183  23C5  3180   	fcall	_GetDescriptor
  3465                           
  3466                           ;Usb.c: 496:     }
  3467     00DD  293F               	goto	i1l293
  3468     00DE                     i1l2413:
  3469     00DE  3009               	movlw	9
  3470     00DF  067A               	xorwf	ProcessStandardRequest@request,w
  3471     00E0  1D03               	btfss	3,2
  3472     00E1  28E3               	goto	u273_21
  3473     00E2  28E4               	goto	u273_20
  3474     00E3                     u273_21:
  3475     00E3  28F6               	goto	i1l2425
  3476     00E4                     u273_20:
  3477     00E4                     i1l2415:
  3478                           
  3479                           ;Usb.c: 498:     {;Usb.c: 499:             RequestHandled = 1;
  3480     00E4  3001               	movlw	1
  3481     00E5  00B8               	movwf	_RequestHandled
  3482     00E6                     i1l2417:
  3483                           
  3484                           ;Usb.c: 500:             CurrentConfiguration = SetupPacket.wValue0;
  3485     00E6  0842               	movf	_SetupPacket+2,w	;volatile
  3486     00E7  00E3               	movwf	_CurrentConfiguration
  3487     00E8                     i1l2419:
  3488                           
  3489                           ;Usb.c: 503:             if (CurrentConfiguration == 0)
  3490     00E8  0863               	movf	_CurrentConfiguration,w
  3491     00E9  1D03               	btfss	3,2
  3492     00EA  28EC               	goto	u274_21
  3493     00EB  28ED               	goto	u274_20
  3494     00EC                     u274_21:
  3495     00EC  28F0               	goto	i1l299
  3496     00ED                     u274_20:
  3497     00ED                     i1l2421:
  3498                           
  3499                           ;Usb.c: 506:                 DeviceState = 0x04;
  3500     00ED  3004               	movlw	4
  3501     00EE  00FD               	movwf	_DeviceState
  3502     00EF  293F               	goto	i1l293
  3503     00F0                     i1l299:	
  3504                           ;Usb.c: 507:             else
  3505                           
  3506                           
  3507                           ;Usb.c: 508:             {;Usb.c: 510:                 DeviceState = 0x05;
  3508     00F0  3005               	movlw	5
  3509     00F1  00FD               	movwf	_DeviceState
  3510     00F2                     i1l2423:
  3511                           
  3512                           ;Usb.c: 513:                 HIDInitEndpoints();
  3513     00F2  3181  21C0  3180   	fcall	_HIDInitEndpoints
  3514     00F5  293F               	goto	i1l293
  3515     00F6                     i1l2425:
  3516     00F6  3008               	movlw	8
  3517     00F7  067A               	xorwf	ProcessStandardRequest@request,w
  3518     00F8  1D03               	btfss	3,2
  3519     00F9  28FB               	goto	u275_21
  3520     00FA  28FC               	goto	u275_20
  3521     00FB                     u275_21:
  3522     00FB  2906               	goto	i1l2433
  3523     00FC                     u275_20:
  3524     00FC                     i1l2427:
  3525                           
  3526                           ;Usb.c: 520:     {;Usb.c: 521:             RequestHandled = 1;
  3527     00FC  3001               	movlw	1
  3528     00FD  00B8               	movwf	_RequestHandled
  3529     00FE                     i1l2429:
  3530                           
  3531                           ;Usb.c: 522:             outPtr = (BYTE*)&CurrentConfiguration;
  3532     00FE  3063               	movlw	(low (_CurrentConfiguration| 0))& (0+255)
  3533     00FF  00B6               	movwf	_outPtr
  3534                           
  3535                           ;Usb.c: 523:             wCount = 1;
  3536     0100  3001               	movlw	1
  3537     0101  00B0               	movwf	_wCount
  3538     0102  3000               	movlw	0
  3539     0103  00B1               	movwf	_wCount+1
  3540     0104                     i1l2431:
  3541                           
  3542                           ;Usb.c: 524:    transferType=0;
  3543     0104  01B4               	clrf	_transferType
  3544                           
  3545                           ;Usb.c: 525:     }
  3546     0105  293F               	goto	i1l293
  3547     0106                     i1l2433:
  3548     0106  087A               	movf	ProcessStandardRequest@request,w
  3549     0107  1D03               	btfss	3,2
  3550     0108  290A               	goto	u276_21
  3551     0109  290B               	goto	u276_20
  3552     010A                     u276_21:
  3553     010A  290F               	goto	i1l2437
  3554     010B                     u276_20:
  3555     010B                     i1l2435:
  3556                           
  3557                           ;Usb.c: 527:     {;Usb.c: 528:             GetStatus();
  3558     010B  3183  2363  3180   	fcall	_GetStatus
  3559                           
  3560                           ;Usb.c: 529:     }
  3561     010E  293F               	goto	i1l293
  3562     010F                     i1l2437:
  3563     010F  037A               	decf	ProcessStandardRequest@request,w
  3564     0110  1903               	btfsc	3,2
  3565     0111  2913               	goto	u277_21
  3566     0112  2914               	goto	u277_20
  3567     0113                     u277_21:
  3568     0113  291A               	goto	i1l2441
  3569     0114                     u277_20:
  3570     0114                     i1l2439:
  3571     0114  3003               	movlw	3
  3572     0115  067A               	xorwf	ProcessStandardRequest@request,w
  3573     0116  1D03               	btfss	3,2
  3574     0117  2919               	goto	u278_21
  3575     0118  291A               	goto	u278_20
  3576     0119                     u278_21:
  3577     0119  291E               	goto	i1l2443
  3578     011A                     u278_20:
  3579     011A                     i1l2441:
  3580                           
  3581                           ;Usb.c: 532:     {;Usb.c: 533:             SetFeature();
  3582     011A  3182  222E  3180   	fcall	_SetFeature
  3583                           
  3584                           ;Usb.c: 534:     }
  3585     011D  293F               	goto	i1l293
  3586     011E                     i1l2443:
  3587     011E  300A               	movlw	10
  3588     011F  067A               	xorwf	ProcessStandardRequest@request,w
  3589     0120  1D03               	btfss	3,2
  3590     0121  2923               	goto	u279_21
  3591     0122  2924               	goto	u279_20
  3592     0123                     u279_21:
  3593     0123  292F               	goto	i1l2453
  3594     0124                     u279_20:
  3595     0124                     i1l2445:
  3596                           
  3597                           ;Usb.c: 536:     {;Usb.c: 539:             RequestHandled = 1;
  3598     0124  3001               	movlw	1
  3599     0125  00B8               	movwf	_RequestHandled
  3600     0126                     i1l2447:
  3601                           
  3602                           ;Usb.c: 540:             ControlTransferBuffer[0] = 0;
  3603     0126  01C9               	clrf	_ControlTransferBuffer	;volatile
  3604     0127                     i1l2449:
  3605                           
  3606                           ;Usb.c: 541:             outPtr = (BYTE*)&ControlTransferBuffer;
  3607     0127  3049               	movlw	(low (_ControlTransferBuffer| 0))& (0+255)
  3608     0128  00B6               	movwf	_outPtr
  3609     0129                     i1l2451:
  3610                           
  3611                           ;Usb.c: 542:             wCount = 1;
  3612     0129  3001               	movlw	1
  3613     012A  00B0               	movwf	_wCount
  3614     012B  3000               	movlw	0
  3615     012C  00B1               	movwf	_wCount+1
  3616                           
  3617                           ;Usb.c: 543:    transferType=0;
  3618     012D  01B4               	clrf	_transferType
  3619                           
  3620                           ;Usb.c: 544:     }
  3621     012E  293F               	goto	i1l293
  3622     012F                     i1l2453:
  3623     012F  300B               	movlw	11
  3624     0130  067A               	xorwf	ProcessStandardRequest@request,w
  3625     0131  1D03               	btfss	3,2
  3626     0132  2934               	goto	u280_21
  3627     0133  2935               	goto	u280_20
  3628     0134                     u280_21:
  3629     0134  2938               	goto	i1l2457
  3630     0135                     u280_20:
  3631     0135                     i1l2455:
  3632                           
  3633                           ;Usb.c: 546:     {;Usb.c: 548:             RequestHandled = 1;
  3634     0135  3001               	movlw	1
  3635     0136  00B8               	movwf	_RequestHandled
  3636                           
  3637                           ;Usb.c: 549:     }
  3638     0137  293F               	goto	i1l293
  3639     0138                     i1l2457:
  3640     0138  3007               	movlw	7
  3641     0139  067A               	xorwf	ProcessStandardRequest@request,w
  3642     013A  1D03               	btfss	3,2
  3643     013B  293D               	goto	u281_21
  3644     013C  293E               	goto	u281_20
  3645     013D                     u281_21:
  3646     013D  293F               	goto	i1l2461
  3647     013E                     u281_20:
  3648     013E  293F               	goto	i1l293
  3649     013F                     i1l2461:
  3650     013F                     i1l293:
  3651     013F  0008               	return
  3652     0140                     __end_of_ProcessStandardRequest:
  3653                           
  3654                           	psect	text23
  3655     022E                     __ptext23:	
  3656 ;; *************** function _SetFeature *****************
  3657 ;; Defined at:
  3658 ;;		line 428 in file "Usb.c"
  3659 ;; Parameters:    Size  Location     Type
  3660 ;;		None
  3661 ;; Auto vars:     Size  Location     Type
  3662 ;;  endpointDir     1    9[COMMON] unsigned char 
  3663 ;;  endpointNum     1    8[COMMON] unsigned char 
  3664 ;;  feature         1    7[COMMON] unsigned char 
  3665 ;;  recipient       1    6[COMMON] unsigned char 
  3666 ;; Return value:  Size  Location     Type
  3667 ;;                  1    wreg      void 
  3668 ;; Registers used:
  3669 ;;		wreg, fsr1l, fsr1h, status,2, status,0
  3670 ;; Tracked objects:
  3671 ;;		On entry : 0/0
  3672 ;;		On exit  : 0/0
  3673 ;;		Unchanged: 0/0
  3674 ;; Data sizes:     COMMON   BANK0   BANK1   BANK2   BANK3   BANK4   BANK5   BANK6   BANK7   BANK8   BANK9  BANK10  BANK1
      +1  BANK12
  3675 ;;      Params:         0       0       0       0       0       0       0       0       0       0       0       0       
      +0       0
  3676 ;;      Locals:         4       0       0       0       0       0       0       0       0       0       0       0       
      +0       0
  3677 ;;      Temps:          6       0       0       0       0       0       0       0       0       0       0       0       
      +0       0
  3678 ;;      Totals:        10       0       0       0       0       0       0       0       0       0       0       0       
      +0       0
  3679 ;;Total ram usage:       10 bytes
  3680 ;; Hardware stack levels used: 1
  3681 ;; This function calls:
  3682 ;;		Nothing
  3683 ;; This function is called by:
  3684 ;;		_ProcessStandardRequest
  3685 ;; This function uses a non-reentrant model
  3686 ;;
  3687                           
  3688     022E                     _SetFeature:	
  3689                           ;psect for function _SetFeature
  3690                           
  3691     022E                     i1l1783:	
  3692                           ;incstack = 0
  3693                           ; Regs used in _SetFeature: [wreg+fsr1l+fsr1h+status,2+status,0]
  3694                           
  3695                           
  3696                           ;Usb.c: 430:     BYTE recipient = SetupPacket.bmRequestType & 0x1F;
  3697     022E  0020               	movlb	0	; select bank0
  3698     022F  0840               	movf	_SetupPacket,w	;volatile
  3699     0230  391F               	andlw	31
  3700     0231  00F6               	movwf	SetFeature@recipient
  3701     0232                     i1l1785:
  3702                           
  3703                           ;Usb.c: 431:     BYTE feature = SetupPacket.wValue0;
  3704     0232  0842               	movf	_SetupPacket+2,w	;volatile
  3705     0233  00F7               	movwf	SetFeature@feature
  3706     0234                     i1l1787:
  3707                           
  3708                           ;Usb.c: 433:     if (recipient == 0x00)
  3709     0234  0876               	movf	SetFeature@recipient,w
  3710     0235  1D03               	btfss	3,2
  3711     0236  2A38               	goto	u156_21
  3712     0237  2A39               	goto	u156_20
  3713     0238                     u156_21:
  3714     0238  2A4B               	goto	i1l1799
  3715     0239                     u156_20:
  3716     0239                     i1l1789:
  3717                           
  3718                           ;Usb.c: 434:     {;Usb.c: 436:         if (feature == 0x01)
  3719     0239  0377               	decf	SetFeature@feature,w
  3720     023A  1D03               	btfss	3,2
  3721     023B  2A3D               	goto	u157_21
  3722     023C  2A3E               	goto	u157_20
  3723     023D                     u157_21:
  3724     023D  2A9A               	goto	i1l289
  3725     023E                     u157_20:
  3726     023E                     i1l1791:
  3727                           
  3728                           ;Usb.c: 437:         {;Usb.c: 438:             RequestHandled = 1;
  3729     023E  3001               	movlw	1
  3730     023F  00B8               	movwf	_RequestHandled
  3731     0240                     i1l1793:
  3732                           
  3733                           ;Usb.c: 439:             if (SetupPacket.bRequest == 0x03)
  3734     0240  3003               	movlw	3
  3735     0241  0641               	xorwf	_SetupPacket+1,w	;volatile
  3736     0242  1D03               	btfss	3,2
  3737     0243  2A45               	goto	u158_21
  3738     0244  2A46               	goto	u158_20
  3739     0245                     u158_21:
  3740     0245  2A49               	goto	i1l1797
  3741     0246                     u158_20:
  3742     0246                     i1l1795:
  3743                           
  3744                           ;Usb.c: 440:                 RemoteWakeup = 1;
  3745     0246  3001               	movlw	1
  3746     0247  00BD               	movwf	_RemoteWakeup
  3747     0248  2A9A               	goto	i1l289
  3748     0249                     i1l1797:
  3749                           
  3750                           ;Usb.c: 442:                 RemoteWakeup = 0;
  3751     0249  01BD               	clrf	_RemoteWakeup
  3752     024A  2A9A               	goto	i1l289
  3753     024B                     i1l1799:
  3754     024B  3002               	movlw	2
  3755     024C  0676               	xorwf	SetFeature@recipient,w
  3756     024D  1D03               	btfss	3,2
  3757     024E  2A50               	goto	u159_21
  3758     024F  2A51               	goto	u159_20
  3759     0250                     u159_21:
  3760     0250  2A9A               	goto	i1l289
  3761     0251                     u159_20:
  3762     0251                     i1l1801:
  3763                           
  3764                           ;Usb.c: 447:     {;Usb.c: 449:         BYTE endpointNum = SetupPacket.wIndex0 & 0x0F;
  3765     0251  0844               	movf	_SetupPacket+4,w	;volatile
  3766     0252  390F               	andlw	15
  3767     0253  00F8               	movwf	SetFeature@endpointNum
  3768                           
  3769                           ;Usb.c: 450:         BYTE endpointDir = SetupPacket.wIndex0 & 0x80;
  3770     0254  0844               	movf	_SetupPacket+4,w	;volatile
  3771     0255  3980               	andlw	128
  3772     0256  00F9               	movwf	SetFeature@endpointDir
  3773     0257                     i1l1803:
  3774                           
  3775                           ;Usb.c: 451:         if ((feature == 0x00) && (endpointNum != 0))
  3776     0257  0877               	movf	SetFeature@feature,w
  3777     0258  1D03               	btfss	3,2
  3778     0259  2A5B               	goto	u160_21
  3779     025A  2A5C               	goto	u160_20
  3780     025B                     u160_21:
  3781     025B  2A9A               	goto	i1l289
  3782     025C                     u160_20:
  3783     025C                     i1l1805:
  3784     025C  0878               	movf	SetFeature@endpointNum,w
  3785     025D  1903               	btfsc	3,2
  3786     025E  2A60               	goto	u161_21
  3787     025F  2A61               	goto	u161_20
  3788     0260                     u161_21:
  3789     0260  2A9A               	goto	i1l289
  3790     0261                     u161_20:
  3791     0261                     i1l1807:
  3792                           
  3793                           ;Usb.c: 452:         {;Usb.c: 454:             RequestHandled = 1;
  3794     0261  3001               	movlw	1
  3795     0262  00B8               	movwf	_RequestHandled
  3796     0263                     i1l1809:
  3797                           
  3798                           ;Usb.c: 457:             inPtr = (BYTE *)&Interfaces[0].Output + (endpointNum * 8);
  3799     0263  0878               	movf	SetFeature@endpointNum,w
  3800     0264  00F0               	movwf	??_SetFeature
  3801     0265  01F1               	clrf	??_SetFeature+1
  3802     0266  35F0               	lslf	??_SetFeature,f
  3803     0267  0DF1               	rlf	??_SetFeature+1,f
  3804     0268  35F0               	lslf	??_SetFeature,f
  3805     0269  0DF1               	rlf	??_SetFeature+1,f
  3806     026A  35F0               	lslf	??_SetFeature,f
  3807     026B  0DF1               	rlf	??_SetFeature+1,f
  3808     026C  3020               	movlw	32
  3809     026D  00F2               	movwf	??_SetFeature+2
  3810     026E  3000               	movlw	0
  3811     026F  00F3               	movwf	??_SetFeature+3
  3812     0270  0870               	movf	??_SetFeature,w
  3813     0271  0772               	addwf	??_SetFeature+2,w
  3814     0272  00F4               	movwf	??_SetFeature+4
  3815     0273  0871               	movf	??_SetFeature+1,w
  3816     0274  3D73               	addwfc	??_SetFeature+3,w
  3817     0275  00F5               	movwf	??_SetFeature+5
  3818     0276  0874               	movf	??_SetFeature+4,w
  3819     0277  00B5               	movwf	_inPtr
  3820                           
  3821                           ;Usb.c: 458:             if (endpointDir)
  3822     0278  0879               	movf	SetFeature@endpointDir,w
  3823     0279  1903               	btfsc	3,2
  3824     027A  2A7C               	goto	u162_21
  3825     027B  2A7D               	goto	u162_20
  3826     027C                     u162_21:
  3827     027C  2A7F               	goto	i1l284
  3828     027D                     u162_20:
  3829     027D                     i1l1811:
  3830                           
  3831                           ;Usb.c: 459:                 inPtr += 4;
  3832     027D  3004               	movlw	4
  3833     027E  07B5               	addwf	_inPtr,f
  3834     027F                     i1l284:
  3835                           
  3836                           ;Usb.c: 461:             if(SetupPacket.bRequest == 0x03)
  3837     027F  3003               	movlw	3
  3838     0280  0641               	xorwf	_SetupPacket+1,w	;volatile
  3839     0281  1D03               	btfss	3,2
  3840     0282  2A84               	goto	u163_21
  3841     0283  2A85               	goto	u163_20
  3842     0284                     u163_21:
  3843     0284  2A8B               	goto	i1l1815
  3844     0285                     u163_20:
  3845     0285                     i1l1813:
  3846                           
  3847                           ;Usb.c: 462:                 *inPtr = 0x84;
  3848     0285  0835               	movf	_inPtr,w
  3849     0286  0086               	movwf	6
  3850     0287  0187               	clrf	7
  3851     0288  3084               	movlw	132
  3852     0289  0081               	movwf	1
  3853     028A  2A9A               	goto	i1l289
  3854     028B                     i1l1815:
  3855                           
  3856                           ;Usb.c: 464:             {;Usb.c: 465:                 if(endpointDir == 1)
  3857     028B  0379               	decf	SetFeature@endpointDir,w
  3858     028C  1D03               	btfss	3,2
  3859     028D  2A8F               	goto	u164_21
  3860     028E  2A90               	goto	u164_20
  3861     028F                     u164_21:
  3862     028F  2A95               	goto	i1l1819
  3863     0290                     u164_20:
  3864     0290                     i1l1817:
  3865                           
  3866                           ;Usb.c: 466:                     *inPtr = 0x00;
  3867     0290  0835               	movf	_inPtr,w
  3868     0291  0086               	movwf	6
  3869     0292  0187               	clrf	7
  3870     0293  0181               	clrf	1
  3871     0294  2A9A               	goto	i1l289
  3872     0295                     i1l1819:
  3873                           
  3874                           ;Usb.c: 468:                     *inPtr = 0x88;
  3875     0295  0835               	movf	_inPtr,w
  3876     0296  0086               	movwf	6
  3877     0297  0187               	clrf	7
  3878     0298  3088               	movlw	136
  3879     0299  0081               	movwf	1
  3880     029A                     i1l289:
  3881     029A  0008               	return
  3882     029B                     __end_of_SetFeature:
  3883                           
  3884                           	psect	text24
  3885     01C0                     __ptext24:	
  3886 ;; *************** function _HIDInitEndpoints *****************
  3887 ;; Defined at:
  3888 ;;		line 232 in file "Usb.c"
  3889 ;; Parameters:    Size  Location     Type
  3890 ;;		None
  3891 ;; Auto vars:     Size  Location     Type
  3892 ;;  i               1    4[COMMON] unsigned char 
  3893 ;; Return value:  Size  Location     Type
  3894 ;;                  1    wreg      void 
  3895 ;; Registers used:
  3896 ;;		wreg, fsr0l, fsr0h, fsr1l, fsr1h, status,2, status,0, pclath, cstack
  3897 ;; Tracked objects:
  3898 ;;		On entry : 0/0
  3899 ;;		On exit  : 0/0
  3900 ;;		Unchanged: 0/0
  3901 ;; Data sizes:     COMMON   BANK0   BANK1   BANK2   BANK3   BANK4   BANK5   BANK6   BANK7   BANK8   BANK9  BANK10  BANK1
      +1  BANK12
  3902 ;;      Params:         0       0       0       0       0       0       0       0       0       0       0       0       
      +0       0
  3903 ;;      Locals:         1       0       0       0       0       0       0       0       0       0       0       0       
      +0       0
  3904 ;;      Temps:          1       0       0       0       0       0       0       0       0       0       0       0       
      +0       0
  3905 ;;      Totals:         2       0       0       0       0       0       0       0       0       0       0       0       
      +0       0
  3906 ;;Total ram usage:        2 bytes
  3907 ;; Hardware stack levels used: 1
  3908 ;; Hardware stack levels required when called: 1
  3909 ;; This function calls:
  3910 ;;		i1___bmul
  3911 ;; This function is called by:
  3912 ;;		_ProcessStandardRequest
  3913 ;; This function uses a non-reentrant model
  3914 ;;
  3915                           
  3916     01C0                     _HIDInitEndpoints:	
  3917                           ;psect for function _HIDInitEndpoints
  3918                           
  3919     01C0                     i1l2377:	
  3920                           ;incstack = 0
  3921                           ; Regs used in _HIDInitEndpoints: [wreg-fsr1h+status,2+status,0+pclath+cstack]
  3922                           
  3923                           
  3924                           ;Usb.c: 234:     BYTE i = 0;
  3925     01C0  01F4               	clrf	HIDInitEndpoints@i
  3926                           
  3927                           ;Usb.c: 236:     HidRxLen =0;
  3928     01C1  0020               	movlb	0	; select bank0
  3929     01C2  01B7               	clrf	_HidRxLen
  3930                           
  3931                           ;Usb.c: 238:     for (i = 0 ; i < 0x01; i++)
  3932     01C3  01F4               	clrf	HIDInitEndpoints@i
  3933     01C4                     i1l2383:
  3934                           
  3935                           ;Usb.c: 239:     {;Usb.c: 241:         EndpointFlags[i] = 0x1E;
  3936     01C4  0874               	movf	HIDInitEndpoints@i,w
  3937     01C5  3E99               	addlw	153
  3938     01C6  0086               	movwf	6
  3939     01C7  300E               	movlw	14	; select bank29/30
  3940     01C8  0087               	movwf	7
  3941     01C9  301E               	movlw	30
  3942     01CA  0081               	movwf	1
  3943     01CB                     i1l2385:
  3944                           
  3945                           ;Usb.c: 243:         Interfaces[i + 1].Output.Cnt = Buffers[(i * 2) + 1].Size;
  3946     01CB  0874               	movf	HIDInitEndpoints@i,w
  3947     01CC  00F3               	movwf	??_HIDInitEndpoints
  3948     01CD  3003               	movlw	3
  3949     01CE                     u264_25:
  3950     01CE  35F3               	lslf	??_HIDInitEndpoints,f
  3951     01CF  0B89               	decfsz	9,f
  3952     01D0  29CE               	goto	u264_25
  3953     01D1  0873               	movf	??_HIDInitEndpoints,w
  3954     01D2  3E29               	addlw	41
  3955     01D3  0086               	movwf	6
  3956     01D4  0187               	clrf	7
  3957     01D5  3006               	movlw	6
  3958     01D6  00F0               	movwf	i1___bmul@multiplicand
  3959     01D7  0874               	movf	HIDInitEndpoints@i,w
  3960     01D8  3186  26E0  3181   	fcall	i1___bmul
  3961     01DB  3E67               	addlw	(low ((_Buffers| 0+3)))& (0+255)
  3962     01DC  0084               	movwf	4
  3963     01DD  0185               	clrf	5
  3964     01DE  0800               	movf	0,w
  3965     01DF  0081               	movwf	1
  3966     01E0                     i1l2387:
  3967                           
  3968                           ;Usb.c: 246:         Interfaces[i + 1].Output.ADDR = ((unsigned int)(((unsigned long)Buf
      +                          fers[(i * 2) + 1].Buffer) & 0xFFFF));
  3969     01E0  3006               	movlw	6
  3970     01E1  00F0               	movwf	i1___bmul@multiplicand
  3971     01E2  0874               	movf	HIDInitEndpoints@i,w
  3972     01E3  3186  26E0  3181   	fcall	i1___bmul
  3973     01E6  3E68               	addlw	(low ((_Buffers| 0+4)))& (0+255)
  3974     01E7  0086               	movwf	6
  3975     01E8  0187               	clrf	7
  3976     01E9  0874               	movf	HIDInitEndpoints@i,w
  3977     01EA  00F3               	movwf	??_HIDInitEndpoints
  3978     01EB  3003               	movlw	3
  3979     01EC                     u265_25:
  3980     01EC  35F3               	lslf	??_HIDInitEndpoints,f
  3981     01ED  0B89               	decfsz	9,f
  3982     01EE  29EC               	goto	u265_25
  3983     01EF  0873               	movf	??_HIDInitEndpoints,w
  3984     01F0  3E2A               	addlw	42
  3985     01F1  0084               	movwf	4
  3986     01F2  0185               	clrf	5
  3987     01F3  3F40               	moviw [0]fsr1
  3988     01F4  3F80               	movwi [0]fsr0
  3989     01F5  3F41               	moviw [1]fsr1
  3990     01F6  3F81               	movwi [1]fsr0
  3991                           
  3992                           ;Usb.c: 248:         Interfaces[i + 1].Output.Stat = 0x80 | 0x08;
  3993     01F7  0874               	movf	HIDInitEndpoints@i,w
  3994     01F8  00F3               	movwf	??_HIDInitEndpoints
  3995     01F9  3003               	movlw	3
  3996     01FA                     u266_25:
  3997     01FA  35F3               	lslf	??_HIDInitEndpoints,f
  3998     01FB  0B89               	decfsz	9,f
  3999     01FC  29FA               	goto	u266_25
  4000     01FD  0873               	movf	??_HIDInitEndpoints,w
  4001     01FE  3E28               	addlw	40
  4002     01FF  0086               	movwf	6
  4003     0200  0187               	clrf	7
  4004     0201  3088               	movlw	136
  4005     0202  0081               	movwf	1
  4006     0203                     i1l2389:
  4007                           
  4008                           ;Usb.c: 251:         Interfaces[i + 1].Input.ADDR = ((unsigned int)(((unsigned long)Buff
      +                          ers[(i * 2)].Buffer) & 0xFFFF));
  4009     0203  3006               	movlw	6
  4010     0204  00F0               	movwf	i1___bmul@multiplicand
  4011     0205  0874               	movf	HIDInitEndpoints@i,w
  4012     0206  3186  26E0  3181   	fcall	i1___bmul
  4013     0209  3E65               	addlw	(low ((_Buffers| 0+1)))& (0+255)
  4014     020A  0086               	movwf	6
  4015     020B  0187               	clrf	7
  4016     020C  0874               	movf	HIDInitEndpoints@i,w
  4017     020D  00F3               	movwf	??_HIDInitEndpoints
  4018     020E  3003               	movlw	3
  4019     020F                     u267_25:
  4020     020F  35F3               	lslf	??_HIDInitEndpoints,f
  4021     0210  0B89               	decfsz	9,f
  4022     0211  2A0F               	goto	u267_25
  4023     0212  0873               	movf	??_HIDInitEndpoints,w
  4024     0213  3E2E               	addlw	46
  4025     0214  0084               	movwf	4
  4026     0215  0185               	clrf	5
  4027     0216  3F40               	moviw [0]fsr1
  4028     0217  3F80               	movwi [0]fsr0
  4029     0218  3F41               	moviw [1]fsr1
  4030     0219  3F81               	movwi [1]fsr0
  4031     021A                     i1l2391:
  4032                           
  4033                           ;Usb.c: 252:         Interfaces[i + 1].Input.Stat = 0x40;
  4034     021A  0874               	movf	HIDInitEndpoints@i,w
  4035     021B  00F3               	movwf	??_HIDInitEndpoints
  4036     021C  3003               	movlw	3
  4037     021D                     u268_25:
  4038     021D  35F3               	lslf	??_HIDInitEndpoints,f
  4039     021E  0B89               	decfsz	9,f
  4040     021F  2A1D               	goto	u268_25
  4041     0220  0873               	movf	??_HIDInitEndpoints,w
  4042     0221  3E2C               	addlw	44
  4043     0222  0086               	movwf	6
  4044     0223  0187               	clrf	7
  4045     0224  3040               	movlw	64
  4046     0225  0081               	movwf	1
  4047     0226                     i1l2393:
  4048                           
  4049                           ;Usb.c: 253:     }
  4050     0226  3001               	movlw	1
  4051     0227  07F4               	addwf	HIDInitEndpoints@i,f
  4052     0228                     i1l2395:
  4053     0228  0874               	movf	HIDInitEndpoints@i,w
  4054     0229  1903               	btfsc	3,2
  4055     022A  2A2C               	goto	u269_21
  4056     022B  2A2D               	goto	u269_20
  4057     022C                     u269_21:
  4058     022C  29C4               	goto	i1l2383
  4059     022D                     u269_20:
  4060     022D                     i1l223:
  4061     022D  0008               	return
  4062     022E                     __end_of_HIDInitEndpoints:
  4063                           
  4064                           	psect	text25
  4065     06E0                     __ptext25:	
  4066 ;; *************** function i1___bmul *****************
  4067 ;; Defined at:
  4068 ;;		line 4 in file "/opt/microchip/xc8/v3.00/pic/sources/c99/common/Umul8.c"
  4069 ;; Parameters:    Size  Location     Type
  4070 ;;  multiplier      1    wreg     unsigned char 
  4071 ;;  multiplicand    1    0[COMMON] unsigned char 
  4072 ;; Auto vars:     Size  Location     Type
  4073 ;;  multiplier      1    2[COMMON] unsigned char 
  4074 ;;  product         1    1[COMMON] unsigned char 
  4075 ;; Return value:  Size  Location     Type
  4076 ;;                  1    wreg      unsigned char 
  4077 ;; Registers used:
  4078 ;;		wreg, status,2, status,0
  4079 ;; Tracked objects:
  4080 ;;		On entry : 0/0
  4081 ;;		On exit  : 0/0
  4082 ;;		Unchanged: 0/0
  4083 ;; Data sizes:     COMMON   BANK0   BANK1   BANK2   BANK3   BANK4   BANK5   BANK6   BANK7   BANK8   BANK9  BANK10  BANK1
      +1  BANK12
  4084 ;;      Params:         1       0       0       0       0       0       0       0       0       0       0       0       
      +0       0
  4085 ;;      Locals:         2       0       0       0       0       0       0       0       0       0       0       0       
      +0       0
  4086 ;;      Temps:          0       0       0       0       0       0       0       0       0       0       0       0       
      +0       0
  4087 ;;      Totals:         3       0       0       0       0       0       0       0       0       0       0       0       
      +0       0
  4088 ;;Total ram usage:        3 bytes
  4089 ;; Hardware stack levels used: 1
  4090 ;; This function calls:
  4091 ;;		Nothing
  4092 ;; This function is called by:
  4093 ;;		_HIDInitEndpoints
  4094 ;; This function uses a non-reentrant model
  4095 ;;
  4096                           
  4097     06E0                     i1___bmul:	
  4098                           ;psect for function i1___bmul
  4099                           
  4100                           
  4101                           ;incstack = 0
  4102                           ; Regs used in i1___bmul: [wreg+status,2+status,0]
  4103                           ;i1___bmul@multiplier stored from wreg
  4104     06E0  00F2               	movwf	i1___bmul@multiplier
  4105     06E1                     i1l1671:
  4106     06E1  01F1               	clrf	i1___bmul@product
  4107     06E2                     i1l1673:
  4108     06E2  1C72               	btfss	i1___bmul@multiplier,0
  4109     06E3  2EE5               	goto	u135_21
  4110     06E4  2EE6               	goto	u135_20
  4111     06E5                     u135_21:
  4112     06E5  2EE8               	goto	i1l1677
  4113     06E6                     u135_20:
  4114     06E6                     i1l1675:
  4115     06E6  0870               	movf	i1___bmul@multiplicand,w
  4116     06E7  07F1               	addwf	i1___bmul@product,f
  4117     06E8                     i1l1677:
  4118     06E8  1003               	clrc
  4119     06E9  0DF0               	rlf	i1___bmul@multiplicand,f
  4120     06EA                     i1l1679:
  4121     06EA  1003               	clrc
  4122     06EB  0CF2               	rrf	i1___bmul@multiplier,f
  4123     06EC  0872               	movf	i1___bmul@multiplier,w
  4124     06ED  1D03               	btfss	3,2
  4125     06EE  2EF0               	goto	u136_21
  4126     06EF  2EF1               	goto	u136_20
  4127     06F0                     u136_21:
  4128     06F0  2EE2               	goto	i1l1673
  4129     06F1                     u136_20:
  4130     06F1                     i1l1681:
  4131     06F1  0871               	movf	i1___bmul@product,w
  4132     06F2                     i1l507:
  4133     06F2  0008               	return
  4134     06F3                     __end_ofi1___bmul:
  4135                           
  4136                           	psect	text26
  4137     0363                     __ptext26:	
  4138 ;; *************** function _GetStatus *****************
  4139 ;; Defined at:
  4140 ;;		line 381 in file "Usb.c"
  4141 ;; Parameters:    Size  Location     Type
  4142 ;;		None
  4143 ;; Auto vars:     Size  Location     Type
  4144 ;;  endpointDir     1    7[COMMON] unsigned char 
  4145 ;;  endpointNum     1    6[COMMON] unsigned char 
  4146 ;;  recipient       1    8[COMMON] unsigned char 
  4147 ;; Return value:  Size  Location     Type
  4148 ;;                  1    wreg      void 
  4149 ;; Registers used:
  4150 ;;		wreg, fsr1l, fsr1h, status,2, status,0
  4151 ;; Tracked objects:
  4152 ;;		On entry : 0/0
  4153 ;;		On exit  : 0/0
  4154 ;;		Unchanged: 0/0
  4155 ;; Data sizes:     COMMON   BANK0   BANK1   BANK2   BANK3   BANK4   BANK5   BANK6   BANK7   BANK8   BANK9  BANK10  BANK1
      +1  BANK12
  4156 ;;      Params:         0       0       0       0       0       0       0       0       0       0       0       0       
      +0       0
  4157 ;;      Locals:         3       0       0       0       0       0       0       0       0       0       0       0       
      +0       0
  4158 ;;      Temps:          6       0       0       0       0       0       0       0       0       0       0       0       
      +0       0
  4159 ;;      Totals:         9       0       0       0       0       0       0       0       0       0       0       0       
      +0       0
  4160 ;;Total ram usage:        9 bytes
  4161 ;; Hardware stack levels used: 1
  4162 ;; This function calls:
  4163 ;;		Nothing
  4164 ;; This function is called by:
  4165 ;;		_ProcessStandardRequest
  4166 ;; This function uses a non-reentrant model
  4167 ;;
  4168                           
  4169     0363                     _GetStatus:	
  4170                           ;psect for function _GetStatus
  4171                           
  4172     0363                     i1l1739:	
  4173                           ;incstack = 0
  4174                           ; Regs used in _GetStatus: [wreg+fsr1l+fsr1h+status,2+status,0]
  4175                           
  4176                           
  4177                           ;Usb.c: 384:     BYTE recipient = SetupPacket.bmRequestType & 0x1F;
  4178     0363  0020               	movlb	0	; select bank0
  4179     0364  0840               	movf	_SetupPacket,w	;volatile
  4180     0365  391F               	andlw	31
  4181     0366  00F8               	movwf	GetStatus@recipient
  4182     0367                     i1l1741:
  4183                           
  4184                           ;Usb.c: 385:     ControlTransferBuffer[0] = 0;
  4185     0367  01C9               	clrf	_ControlTransferBuffer	;volatile
  4186     0368                     i1l1743:
  4187                           
  4188                           ;Usb.c: 386:     ControlTransferBuffer[1] = 0;
  4189     0368  01CA               	clrf	_ControlTransferBuffer+1	;volatile
  4190     0369                     i1l1745:
  4191                           
  4192                           ;Usb.c: 389:     if (recipient == 0x00)
  4193     0369  0878               	movf	GetStatus@recipient,w
  4194     036A  1D03               	btfss	3,2
  4195     036B  2B6D               	goto	u148_21
  4196     036C  2B6E               	goto	u148_20
  4197     036D                     u148_21:
  4198     036D  2B7D               	goto	i1l1757
  4199     036E                     u148_20:
  4200     036E                     i1l1747:
  4201                           
  4202                           ;Usb.c: 390:     {;Usb.c: 392:         RequestHandled = 1;
  4203     036E  3001               	movlw	1
  4204     036F  00B8               	movwf	_RequestHandled
  4205     0370                     i1l1749:
  4206                           
  4207                           ;Usb.c: 394:         if (SelfPowered)
  4208     0370  083B               	movf	_SelfPowered,w
  4209     0371  1903               	btfsc	3,2
  4210     0372  2B74               	goto	u149_21
  4211     0373  2B75               	goto	u149_20
  4212     0374                     u149_21:
  4213     0374  2B76               	goto	i1l1753
  4214     0375                     u149_20:
  4215     0375                     i1l1751:
  4216                           
  4217                           ;Usb.c: 395:             ControlTransferBuffer[0] |= 0x01;
  4218     0375  1449               	bsf	_ControlTransferBuffer,0	;volatile
  4219     0376                     i1l1753:
  4220                           
  4221                           ;Usb.c: 396:         if (RemoteWakeup)
  4222     0376  083D               	movf	_RemoteWakeup,w
  4223     0377  1903               	btfsc	3,2
  4224     0378  2B7A               	goto	u150_21
  4225     0379  2B7B               	goto	u150_20
  4226     037A                     u150_21:
  4227     037A  2BB8               	goto	i1l1777
  4228     037B                     u150_20:
  4229     037B                     i1l1755:
  4230                           
  4231                           ;Usb.c: 397:             ControlTransferBuffer[0] |= 0x02;
  4232     037B  14C9               	bsf	_ControlTransferBuffer,1	;volatile
  4233     037C  2BB8               	goto	i1l1777
  4234     037D                     i1l1757:
  4235     037D  0378               	decf	GetStatus@recipient,w
  4236     037E  1D03               	btfss	3,2
  4237     037F  2B81               	goto	u151_21
  4238     0380  2B82               	goto	u151_20
  4239     0381                     u151_21:
  4240     0381  2B85               	goto	i1l1761
  4241     0382                     u151_20:
  4242     0382                     i1l1759:
  4243                           
  4244                           ;Usb.c: 400:     {;Usb.c: 402:         RequestHandled = 1;
  4245     0382  3001               	movlw	1
  4246     0383  00B8               	movwf	_RequestHandled
  4247                           
  4248                           ;Usb.c: 403:     }
  4249     0384  2BB8               	goto	i1l1777
  4250     0385                     i1l1761:
  4251     0385  3002               	movlw	2
  4252     0386  0678               	xorwf	GetStatus@recipient,w
  4253     0387  1D03               	btfss	3,2
  4254     0388  2B8A               	goto	u152_21
  4255     0389  2B8B               	goto	u152_20
  4256     038A                     u152_21:
  4257     038A  2BB8               	goto	i1l1777
  4258     038B                     u152_20:
  4259     038B                     i1l1763:
  4260                           
  4261                           ;Usb.c: 405:     {;Usb.c: 407:         BYTE endpointNum = SetupPacket.wIndex0 & 0x0F;
  4262     038B  0844               	movf	_SetupPacket+4,w	;volatile
  4263     038C  390F               	andlw	15
  4264     038D  00F6               	movwf	GetStatus@endpointNum
  4265                           
  4266                           ;Usb.c: 408:         BYTE endpointDir = SetupPacket.wIndex0 & 0x80;
  4267     038E  0844               	movf	_SetupPacket+4,w	;volatile
  4268     038F  3980               	andlw	128
  4269     0390  00F7               	movwf	GetStatus@endpointDir
  4270     0391                     i1l1765:
  4271                           
  4272                           ;Usb.c: 409:         RequestHandled = 1;
  4273     0391  3001               	movlw	1
  4274     0392  00B8               	movwf	_RequestHandled
  4275     0393                     i1l1767:
  4276                           
  4277                           ;Usb.c: 412:         inPtr = (BYTE *)&Interfaces[0].Output + (endpointNum * 8);
  4278     0393  0876               	movf	GetStatus@endpointNum,w
  4279     0394  00F0               	movwf	??_GetStatus
  4280     0395  01F1               	clrf	??_GetStatus+1
  4281     0396  35F0               	lslf	??_GetStatus,f
  4282     0397  0DF1               	rlf	??_GetStatus+1,f
  4283     0398  35F0               	lslf	??_GetStatus,f
  4284     0399  0DF1               	rlf	??_GetStatus+1,f
  4285     039A  35F0               	lslf	??_GetStatus,f
  4286     039B  0DF1               	rlf	??_GetStatus+1,f
  4287     039C  3020               	movlw	32
  4288     039D  00F2               	movwf	??_GetStatus+2
  4289     039E  3000               	movlw	0
  4290     039F  00F3               	movwf	??_GetStatus+3
  4291     03A0  0870               	movf	??_GetStatus,w
  4292     03A1  0772               	addwf	??_GetStatus+2,w
  4293     03A2  00F4               	movwf	??_GetStatus+4
  4294     03A3  0871               	movf	??_GetStatus+1,w
  4295     03A4  3D73               	addwfc	??_GetStatus+3,w
  4296     03A5  00F5               	movwf	??_GetStatus+5
  4297     03A6  0874               	movf	??_GetStatus+4,w
  4298     03A7  00B5               	movwf	_inPtr
  4299     03A8                     i1l1769:
  4300                           
  4301                           ;Usb.c: 413:         if (endpointDir)
  4302     03A8  0877               	movf	GetStatus@endpointDir,w
  4303     03A9  1903               	btfsc	3,2
  4304     03AA  2BAC               	goto	u153_21
  4305     03AB  2BAD               	goto	u153_20
  4306     03AC                     u153_21:
  4307     03AC  2BAF               	goto	i1l1773
  4308     03AD                     u153_20:
  4309     03AD                     i1l1771:
  4310                           
  4311                           ;Usb.c: 414:             inPtr += 4;
  4312     03AD  3004               	movlw	4
  4313     03AE  07B5               	addwf	_inPtr,f
  4314     03AF                     i1l1773:
  4315                           
  4316                           ;Usb.c: 415:         if(*inPtr & 0x04)
  4317     03AF  0835               	movf	_inPtr,w
  4318     03B0  0086               	movwf	6
  4319     03B1  0187               	clrf	7
  4320     03B2  1D01               	btfss	1,2
  4321     03B3  2BB5               	goto	u154_21
  4322     03B4  2BB6               	goto	u154_20
  4323     03B5                     u154_21:
  4324     03B5  2BB8               	goto	i1l1777
  4325     03B6                     u154_20:
  4326     03B6                     i1l1775:
  4327                           
  4328                           ;Usb.c: 416:             ControlTransferBuffer[0] = 0x01;
  4329     03B6  3001               	movlw	1
  4330     03B7  00C9               	movwf	_ControlTransferBuffer	;volatile
  4331     03B8                     i1l1777:
  4332                           
  4333                           ;Usb.c: 419:     if (RequestHandled)
  4334     03B8  0838               	movf	_RequestHandled,w
  4335     03B9  1903               	btfsc	3,2
  4336     03BA  2BBC               	goto	u155_21
  4337     03BB  2BBD               	goto	u155_20
  4338     03BC                     u155_21:
  4339     03BC  2BC4               	goto	i1l274
  4340     03BD                     u155_20:
  4341     03BD                     i1l1779:
  4342                           
  4343                           ;Usb.c: 420:     {;Usb.c: 421:         outPtr = (BYTE *)&ControlTransferBuffer;
  4344     03BD  3049               	movlw	(low (_ControlTransferBuffer| 0))& (0+255)
  4345     03BE  00B6               	movwf	_outPtr
  4346                           
  4347                           ;Usb.c: 422:         wCount = 2;
  4348     03BF  3002               	movlw	2
  4349     03C0  00B0               	movwf	_wCount
  4350     03C1  3000               	movlw	0
  4351     03C2  00B1               	movwf	_wCount+1
  4352     03C3                     i1l1781:
  4353                           
  4354                           ;Usb.c: 423:   transferType=0;
  4355     03C3  01B4               	clrf	_transferType
  4356     03C4                     i1l274:
  4357     03C4  0008               	return
  4358     03C5                     __end_of_GetStatus:
  4359                           
  4360                           	psect	text27
  4361     03C5                     __ptext27:	
  4362 ;; *************** function _GetDescriptor *****************
  4363 ;; Defined at:
  4364 ;;		line 342 in file "Usb.c"
  4365 ;; Parameters:    Size  Location     Type
  4366 ;;		None
  4367 ;; Auto vars:     Size  Location     Type
  4368 ;;  descriptorTy    1    4[COMMON] unsigned char 
  4369 ;;  descriptorIn    1    3[COMMON] unsigned char 
  4370 ;; Return value:  Size  Location     Type
  4371 ;;                  1    wreg      void 
  4372 ;; Registers used:
  4373 ;;		wreg, fsr0l, fsr0h, status,2, status,0, pclath
  4374 ;; Tracked objects:
  4375 ;;		On entry : 0/0
  4376 ;;		On exit  : 0/0
  4377 ;;		Unchanged: 0/0
  4378 ;; Data sizes:     COMMON   BANK0   BANK1   BANK2   BANK3   BANK4   BANK5   BANK6   BANK7   BANK8   BANK9  BANK10  BANK1
      +1  BANK12
  4379 ;;      Params:         0       0       0       0       0       0       0       0       0       0       0       0       
      +0       0
  4380 ;;      Locals:         2       0       0       0       0       0       0       0       0       0       0       0       
      +0       0
  4381 ;;      Temps:          3       0       0       0       0       0       0       0       0       0       0       0       
      +0       0
  4382 ;;      Totals:         5       0       0       0       0       0       0       0       0       0       0       0       
      +0       0
  4383 ;;Total ram usage:        5 bytes
  4384 ;; Hardware stack levels used: 1
  4385 ;; This function calls:
  4386 ;;		Nothing
  4387 ;; This function is called by:
  4388 ;;		_ProcessStandardRequest
  4389 ;; This function uses a non-reentrant model
  4390 ;;
  4391                           
  4392     03C5                     _GetDescriptor:	
  4393                           ;psect for function _GetDescriptor
  4394                           
  4395     03C5                     i1l1705:	
  4396                           ;incstack = 0
  4397                           ; Regs used in _GetDescriptor: [wreg-fsr0h+status,2+status,0+pclath]
  4398                           
  4399                           
  4400                           ;Usb.c: 344:     if(SetupPacket.bmRequestType == 0x80)
  4401     03C5  3080               	movlw	128
  4402     03C6  0020               	movlb	0	; select bank0
  4403     03C7  0640               	xorwf	_SetupPacket,w	;volatile
  4404     03C8  1D03               	btfss	3,2
  4405     03C9  2BCB               	goto	u143_21
  4406     03CA  2BCC               	goto	u143_20
  4407     03CB                     u143_21:
  4408     03CB  2C22               	goto	i1l261
  4409     03CC                     u143_20:
  4410     03CC                     i1l1707:
  4411                           
  4412                           ;Usb.c: 345:     {;Usb.c: 346:         BYTE descriptorType = SetupPacket.wValue1;
  4413     03CC  0843               	movf	_SetupPacket+3,w	;volatile
  4414     03CD  00F4               	movwf	GetDescriptor@descriptorType
  4415                           
  4416                           ;Usb.c: 347:         BYTE descriptorIndex = SetupPacket.wValue0;
  4417     03CE  0842               	movf	_SetupPacket+2,w	;volatile
  4418     03CF  00F3               	movwf	GetDescriptor@descriptorIndex
  4419     03D0                     i1l1709:
  4420                           
  4421                           ;Usb.c: 349:         if (descriptorType == 0x01)
  4422     03D0  0374               	decf	GetDescriptor@descriptorType,w
  4423     03D1  1D03               	btfss	3,2
  4424     03D2  2BD4               	goto	u144_21
  4425     03D3  2BD5               	goto	u144_20
  4426     03D4                     u144_21:
  4427     03D4  2BE2               	goto	i1l1717
  4428     03D5                     u144_20:
  4429     03D5                     i1l1711:
  4430                           
  4431                           ;Usb.c: 350:         {;Usb.c: 351:                 RequestHandled = 1;
  4432     03D5  3001               	movlw	1
  4433     03D6  00B8               	movwf	_RequestHandled
  4434     03D7                     i1l1713:
  4435                           
  4436                           ;Usb.c: 352:                 ROMoutPtr = (const BYTE *) & DeviceDescriptor;
  4437     03D7  30F3               	movlw	low (_DeviceDescriptor| (0+32768))
  4438     03D8  00B2               	movwf	_ROMoutPtr
  4439     03D9  3086               	movlw	high (_DeviceDescriptor| (0+32768))
  4440     03DA  00B3               	movwf	_ROMoutPtr+1
  4441                           
  4442                           ;Usb.c: 353:                 wCount = sizeof(DeviceDescriptor);
  4443     03DB  3012               	movlw	18
  4444     03DC  00B0               	movwf	_wCount
  4445     03DD  3000               	movlw	0
  4446     03DE  00B1               	movwf	_wCount+1
  4447     03DF                     i1l1715:
  4448                           
  4449                           ;Usb.c: 354:                 transferType=1;
  4450     03DF  3001               	movlw	1
  4451     03E0  00B4               	movwf	_transferType
  4452                           
  4453                           ;Usb.c: 355:         }
  4454     03E1  2C22               	goto	i1l261
  4455     03E2                     i1l1717:
  4456     03E2  3002               	movlw	2
  4457     03E3  0674               	xorwf	GetDescriptor@descriptorType,w
  4458     03E4  1D03               	btfss	3,2
  4459     03E5  2BE7               	goto	u145_21
  4460     03E6  2BE8               	goto	u145_20
  4461     03E7                     u145_21:
  4462     03E7  2BF3               	goto	i1l1725
  4463     03E8                     u145_20:
  4464     03E8                     i1l1719:
  4465                           
  4466                           ;Usb.c: 357:         {;Usb.c: 358:                 RequestHandled = 1;
  4467     03E8  3001               	movlw	1
  4468     03E9  00B8               	movwf	_RequestHandled
  4469     03EA                     i1l1721:
  4470                           
  4471                           ;Usb.c: 359:                 ROMoutPtr = (const BYTE*)&ConfigurationDescriptor;
  4472     03EA  30EE               	movlw	low (_ConfigurationDescriptor| (0+32768))
  4473     03EB  00B2               	movwf	_ROMoutPtr
  4474     03EC  3085               	movlw	high (_ConfigurationDescriptor| (0+32768))
  4475     03ED  00B3               	movwf	_ROMoutPtr+1
  4476                           
  4477                           ;Usb.c: 360:                 wCount = sizeof(ConfigurationDescriptor);
  4478     03EE  3029               	movlw	41
  4479     03EF  00B0               	movwf	_wCount
  4480     03F0  3000               	movlw	0
  4481     03F1  00B1               	movwf	_wCount+1
  4482     03F2  2BDF               	goto	i1l1715
  4483     03F3                     i1l1725:
  4484     03F3  3003               	movlw	3
  4485     03F4  0674               	xorwf	GetDescriptor@descriptorType,w
  4486     03F5  1D03               	btfss	3,2
  4487     03F6  2BF8               	goto	u146_21
  4488     03F7  2BF9               	goto	u146_20
  4489     03F8                     u146_21:
  4490     03F8  2C22               	goto	i1l254
  4491     03F9                     u146_20:
  4492     03F9                     i1l1727:
  4493                           
  4494                           ;Usb.c: 364:         {;Usb.c: 365:                 RequestHandled = 1;
  4495     03F9  3001               	movlw	1
  4496     03FA  00B8               	movwf	_RequestHandled
  4497     03FB                     i1l1729:
  4498                           
  4499                           ;Usb.c: 366:                 if(descriptorIndex >= 0x03)
  4500     03FB  3003               	movlw	3
  4501     03FC  0273               	subwf	GetDescriptor@descriptorIndex,w
  4502     03FD  1C03               	skipc
  4503     03FE  2C00               	goto	u147_21
  4504     03FF  2C01               	goto	u147_20
  4505     0400                     u147_21:
  4506     0400  2C06               	goto	i1l1733
  4507     0401                     u147_20:
  4508     0401                     i1l1731:
  4509                           
  4510                           ;Usb.c: 367:                     ROMoutPtr = (const BYTE*)&StringDescriptor0;
  4511     0401  3076               	movlw	low (_StringDescriptor0| (0+32768))
  4512     0402  00B2               	movwf	_ROMoutPtr
  4513     0403  3087               	movlw	high (_StringDescriptor0| (0+32768))
  4514     0404  00B3               	movwf	_ROMoutPtr+1
  4515     0405  2C16               	goto	i1l1735
  4516     0406                     i1l1733:
  4517                           
  4518                           ;Usb.c: 369:                     ROMoutPtr = *(StringDescriptorPointers + descriptorInde
      +                          x);
  4519     0406  0873               	movf	GetDescriptor@descriptorIndex,w
  4520     0407  00F0               	movwf	??_GetDescriptor
  4521     0408  01F1               	clrf	??_GetDescriptor+1
  4522     0409  35F0               	lslf	??_GetDescriptor,f
  4523     040A  0DF1               	rlf	??_GetDescriptor+1,f
  4524     040B  305E               	movlw	low _StringDescriptorPointers
  4525     040C  0770               	addwf	??_GetDescriptor,w
  4526     040D  0084               	movwf	4
  4527     040E  3007               	movlw	high _StringDescriptorPointers
  4528     040F  3D71               	addwfc	??_GetDescriptor+1,w
  4529     0410  3880               	iorlw	128
  4530     0411  0085               	movwf	5
  4531     0412  3F00               	moviw [0]fsr0
  4532     0413  00B2               	movwf	_ROMoutPtr
  4533     0414  3F01               	moviw [1]fsr0
  4534     0415  00B3               	movwf	_ROMoutPtr+1
  4535     0416                     i1l1735:
  4536                           
  4537                           ;Usb.c: 371:                 wCount = *ROMoutPtr;
  4538     0416  0832               	movf	_ROMoutPtr,w
  4539     0417  0084               	movwf	4
  4540     0418  0833               	movf	_ROMoutPtr+1,w
  4541     0419  0085               	movwf	5
  4542     041A  0800               	movf	0,w	;code access
  4543     041B  00F0               	movwf	??_GetDescriptor
  4544     041C  01F1               	clrf	??_GetDescriptor+1
  4545     041D  0870               	movf	??_GetDescriptor,w
  4546     041E  00B0               	movwf	_wCount
  4547     041F  0871               	movf	??_GetDescriptor+1,w
  4548     0420  00B1               	movwf	_wCount+1
  4549     0421  2BDF               	goto	i1l1715
  4550     0422                     i1l254:
  4551     0422                     i1l261:
  4552     0422  0008               	return
  4553     0423                     __end_of_GetDescriptor:
  4554                           
  4555                           	psect	text28
  4556     002F                     __ptext28:	
  4557 ;; *************** function _ProcessHIDRequest *****************
  4558 ;; Defined at:
  4559 ;;		line 257 in file "Usb.c"
  4560 ;; Parameters:    Size  Location     Type
  4561 ;;		None
  4562 ;; Auto vars:     Size  Location     Type
  4563 ;;  descriptorTy    1    1[COMMON] unsigned char 
  4564 ;;  bRequest        1    2[COMMON] unsigned char 
  4565 ;; Return value:  Size  Location     Type
  4566 ;;                  1    wreg      void 
  4567 ;; Registers used:
  4568 ;;		wreg, status,2, status,0
  4569 ;; Tracked objects:
  4570 ;;		On entry : 0/0
  4571 ;;		On exit  : 0/0
  4572 ;;		Unchanged: 0/0
  4573 ;; Data sizes:     COMMON   BANK0   BANK1   BANK2   BANK3   BANK4   BANK5   BANK6   BANK7   BANK8   BANK9  BANK10  BANK1
      +1  BANK12
  4574 ;;      Params:         0       0       0       0       0       0       0       0       0       0       0       0       
      +0       0
  4575 ;;      Locals:         2       0       0       0       0       0       0       0       0       0       0       0       
      +0       0
  4576 ;;      Temps:          1       0       0       0       0       0       0       0       0       0       0       0       
      +0       0
  4577 ;;      Totals:         3       0       0       0       0       0       0       0       0       0       0       0       
      +0       0
  4578 ;;Total ram usage:        3 bytes
  4579 ;; Hardware stack levels used: 1
  4580 ;; This function calls:
  4581 ;;		Nothing
  4582 ;; This function is called by:
  4583 ;;		_SetupStage
  4584 ;; This function uses a non-reentrant model
  4585 ;;
  4586                           
  4587     002F                     _ProcessHIDRequest:	
  4588                           ;psect for function _ProcessHIDRequest
  4589                           
  4590     002F                     i1l1821:	
  4591                           ;incstack = 0
  4592                           ; Regs used in _ProcessHIDRequest: [wreg+status,2+status,0]
  4593                           
  4594                           
  4595                           ;Usb.c: 259:     BYTE bRequest;;Usb.c: 262:     if((SetupPacket.bmRequestType & 0x1F) !=
      +                           0x01 || (SetupPacket.wIndex0 != 0x00)) return;
  4596     002F  301F               	movlw	31
  4597     0030  0020               	movlb	0	; select bank0
  4598     0031  0540               	andwf	_SetupPacket,w	;volatile
  4599     0032  00F0               	movwf	??_ProcessHIDRequest
  4600     0033  0370               	decf	??_ProcessHIDRequest,w
  4601     0034  1D03               	btfss	3,2
  4602     0035  2837               	goto	u165_21
  4603     0036  2838               	goto	u165_20
  4604     0037                     u165_21:
  4605     0037  28BC               	goto	i1l229
  4606     0038                     u165_20:
  4607     0038                     i1l1823:
  4608     0038  0844               	movf	_SetupPacket+4,w	;volatile
  4609     0039  1903               	btfsc	3,2
  4610     003A  283C               	goto	u166_21
  4611     003B  283D               	goto	u166_20
  4612     003C                     u166_21:
  4613     003C  283F               	goto	i1l1825
  4614     003D                     u166_20:
  4615     003D  28BC               	goto	i1l229
  4616     003E                     i1l228:
  4617     003E  28BC               	goto	i1l229
  4618     003F                     i1l1825:
  4619                           
  4620                           ;Usb.c: 264:     bRequest = SetupPacket.bRequest;
  4621     003F  0841               	movf	_SetupPacket+1,w	;volatile
  4622     0040  00F2               	movwf	ProcessHIDRequest@bRequest
  4623     0041                     i1l1827:
  4624                           
  4625                           ;Usb.c: 266:     if (bRequest == 0x06)
  4626     0041  3006               	movlw	6
  4627     0042  0672               	xorwf	ProcessHIDRequest@bRequest,w
  4628     0043  1D03               	btfss	3,2
  4629     0044  2846               	goto	u167_21
  4630     0045  2847               	goto	u167_20
  4631     0046                     u167_21:
  4632     0046  286D               	goto	i1l1851
  4633     0047                     u167_20:
  4634     0047                     i1l1829:
  4635                           
  4636                           ;Usb.c: 267:     {;Usb.c: 269:         BYTE descriptorType = SetupPacket.wValue1;
  4637     0047  0843               	movf	_SetupPacket+3,w	;volatile
  4638     0048  00F1               	movwf	ProcessHIDRequest@descriptorType
  4639     0049                     i1l1831:
  4640                           
  4641                           ;Usb.c: 270:         if (descriptorType == 0x21)
  4642     0049  3021               	movlw	33
  4643     004A  0671               	xorwf	ProcessHIDRequest@descriptorType,w
  4644     004B  1D03               	btfss	3,2
  4645     004C  284E               	goto	u168_21
  4646     004D  284F               	goto	u168_20
  4647     004E                     u168_21:
  4648     004E  285C               	goto	i1l1839
  4649     004F                     u168_20:
  4650     004F                     i1l1833:
  4651                           
  4652                           ;Usb.c: 271:         {;Usb.c: 272:             RequestHandled = 1;
  4653     004F  3001               	movlw	1
  4654     0050  00B8               	movwf	_RequestHandled
  4655     0051                     i1l1835:
  4656                           
  4657                           ;Usb.c: 273:             ROMoutPtr = (const BYTE*)&ConfigurationDescriptor.HIDDescriptor
      +                          ;
  4658     0051  30F7               	movlw	low ((_ConfigurationDescriptor| (0+32768)+9))
  4659     0052  00B2               	movwf	_ROMoutPtr
  4660     0053  3085               	movlw	high ((_ConfigurationDescriptor| (0+32768)+9))
  4661     0054  00B3               	movwf	_ROMoutPtr+1
  4662                           
  4663                           ;Usb.c: 274:             wCount = sizeof(ConfigurationDescriptor.HIDDescriptor);
  4664     0055  3020               	movlw	32
  4665     0056  00B0               	movwf	_wCount
  4666     0057  3000               	movlw	0
  4667     0058  00B1               	movwf	_wCount+1
  4668     0059                     i1l1837:
  4669                           
  4670                           ;Usb.c: 275:             transferType=1;
  4671     0059  3001               	movlw	1
  4672     005A  00B4               	movwf	_transferType
  4673                           
  4674                           ;Usb.c: 276:         }
  4675     005B  286D               	goto	i1l1851
  4676     005C                     i1l1839:
  4677     005C  3022               	movlw	34
  4678     005D  0671               	xorwf	ProcessHIDRequest@descriptorType,w
  4679     005E  1D03               	btfss	3,2
  4680     005F  2861               	goto	u169_21
  4681     0060  2862               	goto	u169_20
  4682     0061                     u169_21:
  4683     0061  286D               	goto	i1l1847
  4684     0062                     u169_20:
  4685     0062                     i1l1841:
  4686                           
  4687                           ;Usb.c: 278:         {;Usb.c: 279:             RequestHandled = 1;
  4688     0062  3001               	movlw	1
  4689     0063  00B8               	movwf	_RequestHandled
  4690     0064                     i1l1843:
  4691                           
  4692                           ;Usb.c: 280:             ROMoutPtr = (const BYTE*)HIDReport;
  4693     0064  3018               	movlw	low (_HIDReport| (0+32768))
  4694     0065  00B2               	movwf	_ROMoutPtr
  4695     0066  3085               	movlw	high (_HIDReport| (0+32768))
  4696     0067  00B3               	movwf	_ROMoutPtr+1
  4697                           
  4698                           ;Usb.c: 281:             wCount = sizeof(HIDReport);
  4699     0068  303F               	movlw	63
  4700     0069  00B0               	movwf	_wCount
  4701     006A  3000               	movlw	0
  4702     006B  00B1               	movwf	_wCount+1
  4703     006C  2859               	goto	i1l1837
  4704     006D                     i1l1847:
  4705     006D                     i1l1851:
  4706                           
  4707                           ;Usb.c: 292:     if ((SetupPacket.bmRequestType & 0x60) != 0x20)
  4708     006D  3060               	movlw	96
  4709     006E  0540               	andwf	_SetupPacket,w	;volatile
  4710     006F  00F0               	movwf	??_ProcessHIDRequest
  4711     0070  3020               	movlw	32
  4712     0071  0670               	xorwf	??_ProcessHIDRequest,w
  4713     0072  1903               	btfsc	3,2
  4714     0073  2875               	goto	u170_21
  4715     0074  2876               	goto	u170_20
  4716     0075                     u170_21:
  4717     0075  2877               	goto	i1l1855
  4718     0076                     u170_20:
  4719     0076  28BC               	goto	i1l229
  4720     0077                     i1l1855:
  4721                           
  4722                           ;Usb.c: 298:     if (bRequest == 0x01)
  4723     0077  0372               	decf	ProcessHIDRequest@bRequest,w
  4724     0078  1D03               	btfss	3,2
  4725     0079  287B               	goto	u171_21
  4726     007A  287C               	goto	u171_20
  4727     007B                     u171_21:
  4728     007B  287D               	goto	i1l1859
  4729     007C                     u171_20:
  4730     007C  28BC               	goto	i1l229
  4731     007D                     i1l1859:
  4732     007D  3009               	movlw	9
  4733     007E  0672               	xorwf	ProcessHIDRequest@bRequest,w
  4734     007F  1D03               	btfss	3,2
  4735     0080  2882               	goto	u172_21
  4736     0081  2883               	goto	u172_20
  4737     0082                     u172_21:
  4738     0082  2888               	goto	i1l1863
  4739     0083                     u172_20:
  4740     0083                     i1l1861:
  4741                           
  4742                           ;Usb.c: 303:     {;Usb.c: 304:         HIDPostProcess = 1;
  4743     0083  3001               	movlw	1
  4744     0084  00B9               	movwf	_HIDPostProcess
  4745                           
  4746                           ;Usb.c: 305:         RequestHandled = 1;
  4747     0085  3001               	movlw	1
  4748     0086  00B8               	movwf	_RequestHandled
  4749                           
  4750                           ;Usb.c: 306:     }
  4751     0087  28BC               	goto	i1l229
  4752     0088                     i1l1863:
  4753     0088  3002               	movlw	2
  4754     0089  0672               	xorwf	ProcessHIDRequest@bRequest,w
  4755     008A  1D03               	btfss	3,2
  4756     008B  288D               	goto	u173_21
  4757     008C  288E               	goto	u173_20
  4758     008D                     u173_21:
  4759     008D  2898               	goto	i1l1871
  4760     008E                     u173_20:
  4761     008E                     i1l1865:
  4762                           
  4763                           ;Usb.c: 309:     {;Usb.c: 310:         RequestHandled = 1;
  4764     008E  3001               	movlw	1
  4765     008F  00B8               	movwf	_RequestHandled
  4766     0090                     i1l1867:
  4767                           
  4768                           ;Usb.c: 311:         outPtr = &HidIdleRate;
  4769     0090  3062               	movlw	(low (_HidIdleRate| 0))& (0+255)
  4770     0091  00B6               	movwf	_outPtr
  4771                           
  4772                           ;Usb.c: 312:         wCount = 1;
  4773     0092  3001               	movlw	1
  4774     0093  00B0               	movwf	_wCount
  4775     0094  3000               	movlw	0
  4776     0095  00B1               	movwf	_wCount+1
  4777     0096                     i1l1869:
  4778                           
  4779                           ;Usb.c: 313:         transferType=0;
  4780     0096  01B4               	clrf	_transferType
  4781                           
  4782                           ;Usb.c: 314:     }
  4783     0097  28BC               	goto	i1l229
  4784     0098                     i1l1871:
  4785     0098  300A               	movlw	10
  4786     0099  0672               	xorwf	ProcessHIDRequest@bRequest,w
  4787     009A  1D03               	btfss	3,2
  4788     009B  289D               	goto	u174_21
  4789     009C  289E               	goto	u174_20
  4790     009D                     u174_21:
  4791     009D  28A3               	goto	i1l1877
  4792     009E                     u174_20:
  4793     009E                     i1l1873:
  4794                           
  4795                           ;Usb.c: 317:     {;Usb.c: 318:         RequestHandled = 1;
  4796     009E  3001               	movlw	1
  4797     009F  00B8               	movwf	_RequestHandled
  4798     00A0                     i1l1875:
  4799                           
  4800                           ;Usb.c: 319:         HidIdleRate = SetupPacket.wValue1;
  4801     00A0  0843               	movf	_SetupPacket+3,w	;volatile
  4802     00A1  00E2               	movwf	_HidIdleRate
  4803                           
  4804                           ;Usb.c: 320:     }
  4805     00A2  28BC               	goto	i1l229
  4806     00A3                     i1l1877:
  4807     00A3  3003               	movlw	3
  4808     00A4  0672               	xorwf	ProcessHIDRequest@bRequest,w
  4809     00A5  1D03               	btfss	3,2
  4810     00A6  28A8               	goto	u175_21
  4811     00A7  28A9               	goto	u175_20
  4812     00A8                     u175_21:
  4813     00A8  28B2               	goto	i1l1885
  4814     00A9                     u175_20:
  4815     00A9                     i1l1879:
  4816                           
  4817                           ;Usb.c: 323:     {;Usb.c: 324:         RequestHandled = 1;
  4818     00A9  3001               	movlw	1
  4819     00AA  00B8               	movwf	_RequestHandled
  4820     00AB                     i1l1881:
  4821                           
  4822                           ;Usb.c: 325:         outPtr = &HidProtocol;
  4823     00AB  3061               	movlw	(low (_HidProtocol| 0))& (0+255)
  4824     00AC  00B6               	movwf	_outPtr
  4825                           
  4826                           ;Usb.c: 326:         wCount = 1;
  4827     00AD  3001               	movlw	1
  4828     00AE  00B0               	movwf	_wCount
  4829     00AF  3000               	movlw	0
  4830     00B0  00B1               	movwf	_wCount+1
  4831     00B1  2896               	goto	i1l1869
  4832     00B2                     i1l1885:
  4833     00B2  300B               	movlw	11
  4834     00B3  0672               	xorwf	ProcessHIDRequest@bRequest,w
  4835     00B4  1D03               	btfss	3,2
  4836     00B5  28B7               	goto	u176_21
  4837     00B6  28B8               	goto	u176_20
  4838     00B7                     u176_21:
  4839     00B7  283E               	goto	i1l228
  4840     00B8                     u176_20:
  4841     00B8                     i1l1887:
  4842                           
  4843                           ;Usb.c: 331:     {;Usb.c: 332:         RequestHandled = 1;
  4844     00B8  3001               	movlw	1
  4845     00B9  00B8               	movwf	_RequestHandled
  4846     00BA                     i1l1889:
  4847                           
  4848                           ;Usb.c: 333:         HidProtocol = SetupPacket.wValue0;
  4849     00BA  0842               	movf	_SetupPacket+2,w	;volatile
  4850     00BB  00E1               	movwf	_HidProtocol
  4851     00BC                     i1l229:	
  4852                           ;Usb.c: 334:     }
  4853                           
  4854     00BC  0008               	return
  4855     00BD                     __end_of_ProcessHIDRequest:
  4856                           
  4857                           	psect	text29
  4858     029B                     __ptext29:	
  4859 ;; *************** function _InDataStage *****************
  4860 ;; Defined at:
  4861 ;;		line 562 in file "Usb.c"
  4862 ;; Parameters:    Size  Location     Type
  4863 ;;		None
  4864 ;; Auto vars:     Size  Location     Type
  4865 ;;  bufferSize      2    2[COMMON] unsigned short 
  4866 ;;  i               1    1[COMMON] unsigned char 
  4867 ;; Return value:  Size  Location     Type
  4868 ;;                  1    wreg      void 
  4869 ;; Registers used:
  4870 ;;		wreg, fsr0l, fsr0h, fsr1l, fsr1h, status,2, status,0, pclath
  4871 ;; Tracked objects:
  4872 ;;		On entry : 0/0
  4873 ;;		On exit  : 0/0
  4874 ;;		Unchanged: 0/0
  4875 ;; Data sizes:     COMMON   BANK0   BANK1   BANK2   BANK3   BANK4   BANK5   BANK6   BANK7   BANK8   BANK9  BANK10  BANK1
      +1  BANK12
  4876 ;;      Params:         0       0       0       0       0       0       0       0       0       0       0       0       
      +0       0
  4877 ;;      Locals:         3       0       0       0       0       0       0       0       0       0       0       0       
      +0       0
  4878 ;;      Temps:          1       0       0       0       0       0       0       0       0       0       0       0       
      +0       0
  4879 ;;      Totals:         4       0       0       0       0       0       0       0       0       0       0       0       
      +0       0
  4880 ;;Total ram usage:        4 bytes
  4881 ;; Hardware stack levels used: 1
  4882 ;; This function calls:
  4883 ;;		Nothing
  4884 ;; This function is called by:
  4885 ;;		_SetupStage
  4886 ;;		_ProcessControlTransfer
  4887 ;; This function uses a non-reentrant model
  4888 ;;
  4889                           
  4890     029B                     _InDataStage:	
  4891                           ;psect for function _InDataStage
  4892                           
  4893     029B                     i1l1959:	
  4894                           ;incstack = 0
  4895                           ; Regs used in _InDataStage: [wreg-fsr1h+status,2+status,0+pclath]
  4896                           
  4897                           
  4898                           ;Usb.c: 564:     BYTE i;;Usb.c: 565:     WORD bufferSize;;Usb.c: 568:     if(wCount < 0x
      +                          08)
  4899     029B  3000               	movlw	0
  4900     029C  0020               	movlb	0	; select bank0
  4901     029D  0231               	subwf	_wCount+1,w
  4902     029E  3008               	movlw	8
  4903     029F  1903               	skipnz
  4904     02A0  0230               	subwf	_wCount,w
  4905     02A1  1803               	skipnc
  4906     02A2  2AA4               	goto	u189_21
  4907     02A3  2AA5               	goto	u189_20
  4908     02A4                     u189_21:
  4909     02A4  2AAA               	goto	i1l1963
  4910     02A5                     u189_20:
  4911     02A5                     i1l1961:
  4912                           
  4913                           ;Usb.c: 569:         bufferSize = wCount;
  4914     02A5  0831               	movf	_wCount+1,w
  4915     02A6  00F3               	movwf	InDataStage@bufferSize+1
  4916     02A7  0830               	movf	_wCount,w
  4917     02A8  00F2               	movwf	InDataStage@bufferSize
  4918     02A9  2AAE               	goto	i1l1965
  4919     02AA                     i1l1963:
  4920                           
  4921                           ;Usb.c: 571:         bufferSize = 0x08;
  4922     02AA  3008               	movlw	8
  4923     02AB  00F2               	movwf	InDataStage@bufferSize
  4924     02AC  3000               	movlw	0
  4925     02AD  00F3               	movwf	InDataStage@bufferSize+1
  4926     02AE                     i1l1965:
  4927                           
  4928                           ;Usb.c: 574:     Interfaces[0].Input.Stat &= ~(0x01 | 0x02);
  4929     02AE  30FC               	movlw	252
  4930     02AF  05A4               	andwf	36,f	;volatile
  4931     02B0                     i1l1967:
  4932                           
  4933                           ;Usb.c: 575:     Interfaces[0].Input.Stat |= (BYTE)((bufferSize & 0x0300) >> 8);
  4934     02B0  0873               	movf	InDataStage@bufferSize+1,w
  4935     02B1  3903               	andlw	3
  4936     02B2  04A4               	iorwf	36,f	;volatile
  4937                           
  4938                           ;Usb.c: 576:     Interfaces[0].Input.Cnt = (BYTE)(bufferSize & 0xFF);
  4939     02B3  0872               	movf	InDataStage@bufferSize,w
  4940     02B4  00A5               	movwf	37	;volatile
  4941     02B5                     i1l1969:
  4942                           
  4943                           ;Usb.c: 577:     Interfaces[0].Input.ADDR = ((unsigned int)(((unsigned long)&ControlTran
      +                          sferBuffer) & 0xFFFF));
  4944     02B5  3049               	movlw	low _ControlTransferBuffer
  4945     02B6  00A6               	movwf	38	;volatile
  4946     02B7  3000               	movlw	high _ControlTransferBuffer
  4947     02B8  00A7               	movwf	39	;volatile
  4948     02B9                     i1l1971:
  4949                           
  4950                           ;Usb.c: 582:     wCount = wCount - bufferSize;
  4951     02B9  0872               	movf	InDataStage@bufferSize,w
  4952     02BA  0230               	subwf	_wCount,w
  4953     02BB  00B0               	movwf	_wCount
  4954     02BC  0873               	movf	InDataStage@bufferSize+1,w
  4955     02BD  3B31               	subwfb	_wCount+1,w
  4956     02BE  00B1               	movwf	_wCount+1
  4957                           
  4958                           ;Usb.c: 585:     inPtr = (BYTE *)&ControlTransferBuffer;
  4959     02BF  3049               	movlw	(low (_ControlTransferBuffer| 0))& (0+255)
  4960     02C0  00B5               	movwf	_inPtr
  4961     02C1                     i1l1973:
  4962                           
  4963                           ;Usb.c: 586:  if(transferType==1) for(i=0;i<bufferSize;i++) *inPtr++ = *ROMoutPtr++;
  4964     02C1  0334               	decf	_transferType,w
  4965     02C2  1D03               	btfss	3,2
  4966     02C3  2AC5               	goto	u190_21
  4967     02C4  2AC6               	goto	u190_20
  4968     02C5                     u190_21:
  4969     02C5  2AE5               	goto	i1l1987
  4970     02C6                     u190_20:
  4971     02C6                     i1l1975:
  4972     02C6  01F1               	clrf	InDataStage@i
  4973     02C7  2AD9               	goto	i1l1985
  4974     02C8                     i1l1977:
  4975     02C8  0835               	movf	_inPtr,w
  4976     02C9  0086               	movwf	6
  4977     02CA  0187               	clrf	7
  4978     02CB  0832               	movf	_ROMoutPtr,w
  4979     02CC  0084               	movwf	4
  4980     02CD  0833               	movf	_ROMoutPtr+1,w
  4981     02CE  0085               	movwf	5
  4982     02CF  0800               	movf	0,w	;code access
  4983     02D0  0081               	movwf	1
  4984     02D1                     i1l1979:
  4985     02D1  3001               	movlw	1
  4986     02D2  07B2               	addwf	_ROMoutPtr,f
  4987     02D3  3000               	movlw	0
  4988     02D4  3DB3               	addwfc	_ROMoutPtr+1,f
  4989     02D5                     i1l1981:
  4990     02D5  3001               	movlw	1
  4991     02D6  07B5               	addwf	_inPtr,f
  4992     02D7                     i1l1983:
  4993     02D7  3001               	movlw	1
  4994     02D8  07F1               	addwf	InDataStage@i,f
  4995     02D9                     i1l1985:
  4996     02D9  0871               	movf	InDataStage@i,w
  4997     02DA  00F0               	movwf	??_InDataStage
  4998     02DB  0873               	movf	InDataStage@bufferSize+1,w
  4999     02DC  1D03               	skipz
  5000     02DD  2AE0               	goto	u191_25
  5001     02DE  0872               	movf	InDataStage@bufferSize,w
  5002     02DF  0270               	subwf	??_InDataStage,w
  5003     02E0                     u191_25:
  5004     02E0  1C03               	skipc
  5005     02E1  2AE3               	goto	u191_21
  5006     02E2  2AE4               	goto	u191_20
  5007     02E3                     u191_21:
  5008     02E3  2AC8               	goto	i1l1977
  5009     02E4                     u191_20:
  5010     02E4  2B00               	goto	i1l330
  5011     02E5                     i1l1987:
  5012     02E5  01F1               	clrf	InDataStage@i
  5013     02E6  2AF5               	goto	i1l1997
  5014     02E7                     i1l1989:
  5015     02E7  0835               	movf	_inPtr,w
  5016     02E8  0086               	movwf	6
  5017     02E9  0187               	clrf	7
  5018     02EA  0836               	movf	_outPtr,w
  5019     02EB  0084               	movwf	4
  5020     02EC  0185               	clrf	5
  5021     02ED  0800               	movf	0,w
  5022     02EE  0081               	movwf	1
  5023     02EF                     i1l1991:
  5024     02EF  3001               	movlw	1
  5025     02F0  07B6               	addwf	_outPtr,f
  5026     02F1                     i1l1993:
  5027     02F1  3001               	movlw	1
  5028     02F2  07B5               	addwf	_inPtr,f
  5029     02F3                     i1l1995:
  5030     02F3  3001               	movlw	1
  5031     02F4  07F1               	addwf	InDataStage@i,f
  5032     02F5                     i1l1997:
  5033     02F5  0871               	movf	InDataStage@i,w
  5034     02F6  00F0               	movwf	??_InDataStage
  5035     02F7  0873               	movf	InDataStage@bufferSize+1,w
  5036     02F8  1D03               	skipz
  5037     02F9  2AFC               	goto	u192_25
  5038     02FA  0872               	movf	InDataStage@bufferSize,w
  5039     02FB  0270               	subwf	??_InDataStage,w
  5040     02FC                     u192_25:
  5041     02FC  1C03               	skipc
  5042     02FD  2AFF               	goto	u192_21
  5043     02FE  2B00               	goto	u192_20
  5044     02FF                     u192_21:
  5045     02FF  2AE7               	goto	i1l1989
  5046     0300                     u192_20:
  5047     0300                     i1l330:
  5048     0300  0008               	return
  5049     0301                     __end_of_InDataStage:
  5050                           
  5051                           	psect	text30
  5052     0596                     __ptext30:	
  5053 ;; *************** function _OutDataStage *****************
  5054 ;; Defined at:
  5055 ;;		line 591 in file "Usb.c"
  5056 ;; Parameters:    Size  Location     Type
  5057 ;;		None
  5058 ;; Auto vars:     Size  Location     Type
  5059 ;;  bufferSize      2    3[COMMON] unsigned short 
  5060 ;;  i               2    1[COMMON] unsigned short 
  5061 ;; Return value:  Size  Location     Type
  5062 ;;                  1    wreg      void 
  5063 ;; Registers used:
  5064 ;;		wreg, fsr0l, fsr0h, fsr1l, fsr1h, status,2, status,0
  5065 ;; Tracked objects:
  5066 ;;		On entry : 0/0
  5067 ;;		On exit  : 0/0
  5068 ;;		Unchanged: 0/0
  5069 ;; Data sizes:     COMMON   BANK0   BANK1   BANK2   BANK3   BANK4   BANK5   BANK6   BANK7   BANK8   BANK9  BANK10  BANK1
      +1  BANK12
  5070 ;;      Params:         0       0       0       0       0       0       0       0       0       0       0       0       
      +0       0
  5071 ;;      Locals:         4       0       0       0       0       0       0       0       0       0       0       0       
      +0       0
  5072 ;;      Temps:          1       0       0       0       0       0       0       0       0       0       0       0       
      +0       0
  5073 ;;      Totals:         5       0       0       0       0       0       0       0       0       0       0       0       
      +0       0
  5074 ;;Total ram usage:        5 bytes
  5075 ;; Hardware stack levels used: 1
  5076 ;; This function calls:
  5077 ;;		Nothing
  5078 ;; This function is called by:
  5079 ;;		_ProcessControlTransfer
  5080 ;; This function uses a non-reentrant model
  5081 ;;
  5082                           
  5083     0596                     _OutDataStage:	
  5084                           ;psect for function _OutDataStage
  5085                           
  5086     0596                     i1l2039:	
  5087                           ;incstack = 0
  5088                           ; Regs used in _OutDataStage: [wreg-fsr1h+status,2+status,0]
  5089                           
  5090                           
  5091                           ;Usb.c: 593:     WORD i, bufferSize;;Usb.c: 595:     bufferSize = ((WORD)(0x03 & Interfa
      +                          ces[0].Output.Stat) << 8) | (WORD)Interfaces[0].Output.Cnt;
  5092     0596  3003               	movlw	3
  5093     0597  0020               	movlb	0	; select bank0
  5094     0598  0520               	andwf	32,w	;volatile
  5095     0599  00F0               	movwf	??_OutDataStage
  5096     059A  0870               	movf	??_OutDataStage,w
  5097     059B  00F4               	movwf	OutDataStage@bufferSize+1
  5098     059C  0821               	movf	33,w	;volatile
  5099     059D  00F3               	movwf	OutDataStage@bufferSize
  5100                           
  5101                           ;Usb.c: 598:     wCount = wCount + bufferSize;
  5102     059E  0873               	movf	OutDataStage@bufferSize,w
  5103     059F  0730               	addwf	_wCount,w
  5104     05A0  00B0               	movwf	_wCount
  5105     05A1  0874               	movf	OutDataStage@bufferSize+1,w
  5106     05A2  3D31               	addwfc	_wCount+1,w
  5107     05A3  00B1               	movwf	_wCount+1
  5108     05A4                     i1l2041:
  5109                           
  5110                           ;Usb.c: 600:     outPtr = (BYTE*)&ControlTransferBuffer;
  5111     05A4  3049               	movlw	(low (_ControlTransferBuffer| 0))& (0+255)
  5112     05A5  00B6               	movwf	_outPtr
  5113     05A6                     i1l2043:
  5114                           
  5115                           ;Usb.c: 602:     for (i=0;i<bufferSize;i++)
  5116     05A6  01F1               	clrf	OutDataStage@i
  5117     05A7  01F2               	clrf	OutDataStage@i+1
  5118     05A8  2DB9               	goto	i1l2053
  5119     05A9                     i1l2045:
  5120                           
  5121                           ;Usb.c: 603:     {;Usb.c: 604:         *inPtr++ = *outPtr++;
  5122     05A9  0835               	movf	_inPtr,w
  5123     05AA  0086               	movwf	6
  5124     05AB  0187               	clrf	7
  5125     05AC  0836               	movf	_outPtr,w
  5126     05AD  0084               	movwf	4
  5127     05AE  0185               	clrf	5
  5128     05AF  0800               	movf	0,w
  5129     05B0  0081               	movwf	1
  5130     05B1                     i1l2047:
  5131     05B1  3001               	movlw	1
  5132     05B2  07B6               	addwf	_outPtr,f
  5133     05B3                     i1l2049:
  5134     05B3  3001               	movlw	1
  5135     05B4  07B5               	addwf	_inPtr,f
  5136     05B5                     i1l2051:
  5137                           
  5138                           ;Usb.c: 605:     }
  5139     05B5  3001               	movlw	1
  5140     05B6  07F1               	addwf	OutDataStage@i,f
  5141     05B7  3000               	movlw	0
  5142     05B8  3DF2               	addwfc	OutDataStage@i+1,f
  5143     05B9                     i1l2053:
  5144     05B9  0874               	movf	OutDataStage@bufferSize+1,w
  5145     05BA  0272               	subwf	OutDataStage@i+1,w
  5146     05BB  1D03               	skipz
  5147     05BC  2DBF               	goto	u206_25
  5148     05BD  0873               	movf	OutDataStage@bufferSize,w
  5149     05BE  0271               	subwf	OutDataStage@i,w
  5150     05BF                     u206_25:
  5151     05BF  1C03               	skipc
  5152     05C0  2DC2               	goto	u206_21
  5153     05C1  2DC3               	goto	u206_20
  5154     05C2                     u206_21:
  5155     05C2  2DA9               	goto	i1l2045
  5156     05C3                     u206_20:
  5157     05C3                     i1l336:
  5158     05C3  0008               	return
  5159     05C4                     __end_of_OutDataStage:
  5160                           
  5161                           	psect	text31
  5162     0684                     __ptext31:	
  5163 ;; *************** function _BusReset *****************
  5164 ;; Defined at:
  5165 ;;		line 832 in file "Usb.c"
  5166 ;; Parameters:    Size  Location     Type
  5167 ;;		None
  5168 ;; Auto vars:     Size  Location     Type
  5169 ;;		None
  5170 ;; Return value:  Size  Location     Type
  5171 ;;                  1    wreg      void 
  5172 ;; Registers used:
  5173 ;;		status,2, status,0, pclath, cstack
  5174 ;; Tracked objects:
  5175 ;;		On entry : 0/0
  5176 ;;		On exit  : 0/0
  5177 ;;		Unchanged: 0/0
  5178 ;; Data sizes:     COMMON   BANK0   BANK1   BANK2   BANK3   BANK4   BANK5   BANK6   BANK7   BANK8   BANK9  BANK10  BANK1
      +1  BANK12
  5179 ;;      Params:         0       0       0       0       0       0       0       0       0       0       0       0       
      +0       0
  5180 ;;      Locals:         0       0       0       0       0       0       0       0       0       0       0       0       
      +0       0
  5181 ;;      Temps:          0       0       0       0       0       0       0       0       0       0       0       0       
      +0       0
  5182 ;;      Totals:         0       0       0       0       0       0       0       0       0       0       0       0       
      +0       0
  5183 ;;Total ram usage:        0 bytes
  5184 ;; Hardware stack levels used: 1
  5185 ;; Hardware stack levels required when called: 1
  5186 ;; This function calls:
  5187 ;;		_WaitForSetupStage
  5188 ;; This function is called by:
  5189 ;;		_ProcessUSBTransactions
  5190 ;; This function uses a non-reentrant model
  5191 ;;
  5192                           
  5193     0684                     _BusReset:	
  5194                           ;psect for function _BusReset
  5195                           
  5196     0684                     i1l2199:	
  5197                           ;incstack = 0
  5198                           ; Regs used in _BusReset: [status,2+status,0+pclath+cstack]
  5199                           
  5200                           
  5201                           ;Usb.c: 834:     UEIR = 0x00;
  5202     0684  003D               	movlb	29	; select bank29
  5203     0685  0193               	clrf	19	;volatile
  5204                           
  5205                           ;Usb.c: 835:     UIR = 0x00;
  5206     0686  0190               	clrf	16	;volatile
  5207     0687                     i1l2201:
  5208                           
  5209                           ;Usb.c: 836:     UEIE = 0x9f;
  5210     0687  309F               	movlw	159
  5211     0688  0097               	movwf	23	;volatile
  5212     0689                     i1l2203:
  5213                           
  5214                           ;Usb.c: 837:     UIE = 0x7b;
  5215     0689  307B               	movlw	123
  5216     068A  0092               	movwf	18	;volatile
  5217                           
  5218                           ;Usb.c: 838:     UADDR = 0x00;
  5219     068B  0196               	clrf	22	;volatile
  5220     068C                     i1l2205:
  5221                           
  5222                           ;Usb.c: 841:     UEP0 = 0x16;
  5223     068C  3016               	movlw	22
  5224     068D  0098               	movwf	24	;volatile
  5225                           
  5226                           ;Usb.c: 844:     while (UIRbits.TRNIF == 1) UIRbits.TRNIF = 0;
  5227     068E  2E90               	goto	i1l397
  5228     068F                     i1l398:
  5229     068F  1190               	bcf	16,3	;volatile
  5230     0690                     i1l397:
  5231     0690  1990               	btfsc	16,3	;volatile
  5232     0691  2E93               	goto	u235_21
  5233     0692  2E94               	goto	u235_20
  5234     0693                     u235_21:
  5235     0693  2E8F               	goto	i1l398
  5236     0694                     u235_20:
  5237     0694                     i1l399:
  5238                           
  5239                           ;Usb.c: 847:     UCONbits.PKTDIS = 0;
  5240     0694  120E               	bcf	14,4	;volatile
  5241     0695                     i1l2207:
  5242                           
  5243                           ;Usb.c: 850:     WaitForSetupStage();
  5244     0695  3187  2744  3186   	fcall	_WaitForSetupStage
  5245     0698                     i1l2209:
  5246                           
  5247                           ;Usb.c: 852:     RemoteWakeup = 0;
  5248     0698  0020               	movlb	0	; select bank0
  5249     0699  01BD               	clrf	_RemoteWakeup
  5250     069A                     i1l2211:
  5251                           
  5252                           ;Usb.c: 853:     SelfPowered = 0;
  5253     069A  01BB               	clrf	_SelfPowered
  5254     069B                     i1l2213:
  5255                           
  5256                           ;Usb.c: 854:     CurrentConfiguration = 0;
  5257     069B  01E3               	clrf	_CurrentConfiguration
  5258     069C                     i1l2215:
  5259                           
  5260                           ;Usb.c: 855:     DeviceState = 0x03;
  5261     069C  3003               	movlw	3
  5262     069D  00FD               	movwf	_DeviceState
  5263     069E                     i1l400:
  5264     069E  0008               	return
  5265     069F                     __end_of_BusReset:
  5266                           
  5267                           	psect	text32
  5268     0744                     __ptext32:	
  5269 ;; *************** function _WaitForSetupStage *****************
  5270 ;; Defined at:
  5271 ;;		line 679 in file "Usb.c"
  5272 ;; Parameters:    Size  Location     Type
  5273 ;;		None
  5274 ;; Auto vars:     Size  Location     Type
  5275 ;;		None
  5276 ;; Return value:  Size  Location     Type
  5277 ;;                  1    wreg      void 
  5278 ;; Registers used:
  5279 ;;		status,2
  5280 ;; Tracked objects:
  5281 ;;		On entry : 0/0
  5282 ;;		On exit  : 0/0
  5283 ;;		Unchanged: 0/0
  5284 ;; Data sizes:     COMMON   BANK0   BANK1   BANK2   BANK3   BANK4   BANK5   BANK6   BANK7   BANK8   BANK9  BANK10  BANK1
      +1  BANK12
  5285 ;;      Params:         0       0       0       0       0       0       0       0       0       0       0       0       
      +0       0
  5286 ;;      Locals:         0       0       0       0       0       0       0       0       0       0       0       0       
      +0       0
  5287 ;;      Temps:          0       0       0       0       0       0       0       0       0       0       0       0       
      +0       0
  5288 ;;      Totals:         0       0       0       0       0       0       0       0       0       0       0       0       
      +0       0
  5289 ;;Total ram usage:        0 bytes
  5290 ;; Hardware stack levels used: 1
  5291 ;; This function calls:
  5292 ;;		Nothing
  5293 ;; This function is called by:
  5294 ;;		_ProcessControlTransfer
  5295 ;;		_Stall
  5296 ;;		_BusReset
  5297 ;; This function uses a non-reentrant model
  5298 ;;
  5299                           
  5300     0744                     _WaitForSetupStage:	
  5301                           ;psect for function _WaitForSetupStage
  5302                           
  5303     0744                     i1l2103:	
  5304                           ;incstack = 0
  5305                           ; Regs used in _WaitForSetupStage: [status,2]
  5306                           
  5307                           
  5308                           ;Usb.c: 681:     CtrlTransferStage = 0x00;
  5309     0744  0020               	movlb	0	; select bank0
  5310     0745  01BA               	clrf	_CtrlTransferStage
  5311     0746                     i1l2105:
  5312                           
  5313                           ;Usb.c: 682:     Interfaces[0].Output.Cnt = 0x08;
  5314     0746  3008               	movlw	8
  5315     0747  00A1               	movwf	33	;volatile
  5316     0748                     i1l2107:
  5317                           
  5318                           ;Usb.c: 683:     Interfaces[0].Output.ADDR = ((unsigned int)(((unsigned long)&SetupPacke
      +                          t) & 0xFFFF));
  5319     0748  3000               	movlw	high _SetupPacket
  5320     0749  00A3               	movwf	35	;volatile
  5321     074A  3040               	movlw	low _SetupPacket
  5322     074B  00A2               	movwf	34	;volatile
  5323     074C                     i1l2109:
  5324                           
  5325                           ;Usb.c: 684:     Interfaces[0].Output.Stat = 0x80 | 0x08;
  5326     074C  3088               	movlw	136
  5327     074D  00A0               	movwf	32	;volatile
  5328                           
  5329                           ;Usb.c: 685:     Interfaces[0].Input.Stat = 0x00;
  5330     074E  01A4               	clrf	36	;volatile
  5331     074F                     i1l347:
  5332     074F  0008               	return
  5333     0750                     __end_of_WaitForSetupStage:
  5334     0002                     ___latbits      equ	2
  5335     007E                     btemp           set	126	;btemp
  5336     007E                     int$flags       set	126
  5337     007E                     wtemp0          set	126
  5338                           
  5339                           	psect	config
  5340                           
  5341                           ;Config register CONFIG1 @ 0x8007
  5342                           ;	Oscillator Selection Bits
  5343                           ;	FOSC = INTOSC, INTOSC oscillator: I/O function on CLKIN pin
  5344                           ;	Watchdog Timer Enable
  5345                           ;	WDTE = OFF, WDT disabled
  5346                           ;	Power-up Timer Enable
  5347                           ;	PWRTE = OFF, PWRT disabled
  5348                           ;	MCLR Pin Function Select
  5349                           ;	MCLRE = OFF, MCLR/VPP pin function is digital input
  5350                           ;	Flash Program Memory Code Protection
  5351                           ;	CP = OFF, Program memory code protection is disabled
  5352                           ;	Brown-out Reset Enable
  5353                           ;	BOREN = ON, Brown-out Reset enabled
  5354                           ;	Clock Out Enable
  5355                           ;	CLKOUTEN = OFF, CLKOUT function is disabled. I/O or oscillator function on the CLKOUT 
      +                          pin
  5356                           ;	Internal/External Switchover Mode
  5357                           ;	IESO = OFF, Internal/External Switchover Mode is disabled
  5358                           ;	Fail-Safe Clock Monitor Enable
  5359                           ;	FCMEN = OFF, Fail-Safe Clock Monitor is disabled
  5360     8007                     	org	32775
  5361     8007  0FA4               	dw	4004
  5362                           
  5363                           ;Config register CONFIG2 @ 0x8008
  5364                           ;	Flash Memory Self-Write Protection
  5365                           ;	WRT = OFF, Write protection off
  5366                           ;	CPU System Clock Selection Bit
  5367                           ;	CPUDIV = NOCLKDIV, NO CPU system divide
  5368                           ;	USB Low Speed Clock Selection bit
  5369                           ;	USBLSCLK = 48MHz, System clock expects 48 MHz, FS/LS USB CLKENs divide-by is set to 8.
  5370                           ;	PLL Multiplier Selection Bit
  5371                           ;	PLLMULT = 3x, 3x Output Frequency Selected
  5372                           ;	PLL Enable Bit
  5373                           ;	PLLEN = ENABLED, 3x or 4x PLL Enabled
  5374                           ;	Stack Overflow/Underflow Reset Enable
  5375                           ;	STVREN = ON, Stack Overflow or Underflow will cause a Reset
  5376                           ;	Brown-out Reset Voltage Selection
  5377                           ;	BORV = LO, Brown-out Reset Voltage (Vbor), low trip point selected.
  5378                           ;	Low-Power Brown Out Reset
  5379                           ;	LPBOR = OFF, Low-Power BOR is disabled
  5380                           ;	Low-Voltage Programming Enable
  5381                           ;	LVP = OFF, High-voltage on MCLR/VPP must be used for programming
  5382     8008                     	org	32776
  5383     8008  1FCF               	dw	8143

Data Sizes:
    Strings     0
    Constant    198
    Data        6
    BSS         53
    Persistent  32
    Stack       0

Auto Spaces:
    Space          Size  Autos    Used
    COMMON           14     13      14
    BANK0            64      5      63
    BANK1            80      0       0
    BANK2            80      0       0
    BANK3            80      0       0
    BANK4            80      0       0
    BANK5            80      0       0
    BANK6            80      0       0
    BANK7            80      0       0
    BANK8            80      0       0
    BANK9            80      0       0
    BANK10           80      0       0
    BANK11           80      0       0
    BANK12           48      0       0

Pointer List with Targets:

    Buffers$Buffer	PTR unsigned char  size(2) Largest target is 8
		 -> HIDRxBuffer(BANK0[8]), HIDTxBuffer(BANK0[8]), 

    inPtr	PTR unsigned char  size(1) Largest target is 16
		 -> ControlTransferBuffer(BANK0[8]), Interfaces(ABS[16]), Interfaces$Output(BANK0[4]), Interfaces$Output$Stat(BANK0[1]), 
		 -> NULL(NULL[0]), 

    outPtr	PTR unsigned char  size(1) Largest target is 8
		 -> ControlTransferBuffer(BANK0[8]), CurrentConfiguration(BANK0[1]), HidIdleRate(BANK0[1]), HidProtocol(BANK0[1]), 
		 -> NULL(NULL[0]), 

    ROMoutPtr	PTR const unsigned char  size(2) Largest target is 63
		 -> ConfigurationDescriptor(CODE[41]), ConfigurationDescriptor$HIDDescriptor(CODE[32]), DeviceDescriptor(CODE[18]), HIDReport(CODE[63]), 
		 -> StringDescriptor0(CODE[4]), StringDescriptor1(CODE[24]), StringDescriptor2(CODE[42]), NULL(NULL[0]), 

    S22_BufferInfo$Buffer	PTR unsigned char  size(2) Largest target is 8
		 -> HIDRxBuffer(BANK0[8]), HIDTxBuffer(BANK0[8]), 

    StringDescriptorPointers	const PTR const unsigned char [3] size(2) Largest target is 42
		 -> StringDescriptor0(CODE[4]), StringDescriptor1(CODE[24]), StringDescriptor2(CODE[42]), 


Critical Paths under _main in COMMON

    None.

Critical Paths under _ISRCode in COMMON

    _ProcessUSBTransactions->_ProcessControlTransfer
    _SetupStage->_ProcessStandardRequest
    _ProcessStandardRequest->_SetFeature
    _HIDInitEndpoints->i1___bmul

Critical Paths under _main in BANK0

    _ProcessIO->_HIDSend
    _HIDSend->___bmul
    _CheckUsb->_ReArmInterface
    _ReArmInterface->___bmul

Critical Paths under _ISRCode in BANK0

    None.

Critical Paths under _main in BANK1

    None.

Critical Paths under _ISRCode in BANK1

    None.

Critical Paths under _main in BANK2

    None.

Critical Paths under _ISRCode in BANK2

    None.

Critical Paths under _main in BANK3

    None.

Critical Paths under _ISRCode in BANK3

    None.

Critical Paths under _main in BANK4

    None.

Critical Paths under _ISRCode in BANK4

    None.

Critical Paths under _main in BANK5

    None.

Critical Paths under _ISRCode in BANK5

    None.

Critical Paths under _main in BANK6

    None.

Critical Paths under _ISRCode in BANK6

    None.

Critical Paths under _main in BANK7

    None.

Critical Paths under _ISRCode in BANK7

    None.

Critical Paths under _main in BANK8

    None.

Critical Paths under _ISRCode in BANK8

    None.

Critical Paths under _main in BANK9

    None.

Critical Paths under _ISRCode in BANK9

    None.

Critical Paths under _main in BANK10

    None.

Critical Paths under _ISRCode in BANK10

    None.

Critical Paths under _main in BANK11

    None.

Critical Paths under _ISRCode in BANK11

    None.

Critical Paths under _main in BANK12

    None.

Critical Paths under _ISRCode in BANK12

    None.

Call Graph Tables:

 ---------------------------------------------------------------------------------
 (Depth) Function   	        Calls       Base Space   Used Autos Params    Refs
 ---------------------------------------------------------------------------------
 (0) _main                                                 0     0      0    1065
                   _EnableInterrupts
                    _EnableUSBModule
                   _InitializeSystem
                      _InitializeUSB
                          _ProcessIO
 ---------------------------------------------------------------------------------
 (1) _ProcessIO                                            0     0      0    1065
                           _CheckUsb
                            _HIDSend
                    _PrepareTxBuffer
 ---------------------------------------------------------------------------------
 (2) _PrepareTxBuffer                                      1     1      0      68
                                              0 BANK0      1     1      0
 ---------------------------------------------------------------------------------
 (2) _HIDSend                                              2     2      0     455
                                              3 BANK0      2     2      0
                             ___bmul
 ---------------------------------------------------------------------------------
 (2) _CheckUsb                                             0     0      0     542
                 _IsUsbDataAvaialble
               _ProcessIncommingData
                     _ReArmInterface
 ---------------------------------------------------------------------------------
 (3) _ReArmInterface                                       2     2      0     455
                                              3 BANK0      2     2      0
                             ___bmul
 ---------------------------------------------------------------------------------
 (3) ___bmul                                               3     2      1     173
                                              0 BANK0      3     2      1
 ---------------------------------------------------------------------------------
 (3) _ProcessIncommingData                                 0     0      0       0
 ---------------------------------------------------------------------------------
 (3) _IsUsbDataAvaialble                                   2     2      0      87
                                              0 BANK0      2     2      0
 ---------------------------------------------------------------------------------
 (1) _InitializeUSB                                        0     0      0       0
                     _ResetPPBuffers
 ---------------------------------------------------------------------------------
 (2) _ResetPPBuffers                                       0     0      0       0
 ---------------------------------------------------------------------------------
 (1) _InitializeSystem                                     0     0      0       0
 ---------------------------------------------------------------------------------
 (1) _EnableUSBModule                                      0     0      0       0
 ---------------------------------------------------------------------------------
 (1) _EnableInterrupts                                     0     0      0       0
 ---------------------------------------------------------------------------------
 Estimated maximum stack depth 3
 ---------------------------------------------------------------------------------
 (Depth) Function   	        Calls       Base Space   Used Autos Params    Refs
 ---------------------------------------------------------------------------------
 (5) _ISRCode                                              0     0      0    1825
             _ProcessUSBTransactions
 ---------------------------------------------------------------------------------
 (6) _ProcessUSBTransactions                               0     0      0    1825
                           _BusReset
             _ProcessControlTransfer
                              _Stall
                       _StartOfFrame
                            _Suspend
                          _UnSuspend
 ---------------------------------------------------------------------------------
 (7) _UnSuspend                                            0     0      0       0
 ---------------------------------------------------------------------------------
 (7) _Suspend                                              0     0      0       0
 ---------------------------------------------------------------------------------
 (7) _StartOfFrame                                         0     0      0       0
 ---------------------------------------------------------------------------------
 (7) _Stall                                                0     0      0       0
                  _WaitForSetupStage
 ---------------------------------------------------------------------------------
 (7) _ProcessControlTransfer                               2     2      0    1825
                                             11 COMMON     2     2      0
                        _InDataStage
                       _OutDataStage
                         _SetupStage
                  _WaitForSetupStage
 ---------------------------------------------------------------------------------
 (8) _SetupStage                                           0     0      0    1562
                        _InDataStage
                  _ProcessHIDRequest
             _ProcessStandardRequest
 ---------------------------------------------------------------------------------
 (9) _ProcessStandardRequest                               1     1      0    1180
                                             10 COMMON     1     1      0
                      _GetDescriptor
                          _GetStatus
                   _HIDInitEndpoints
                         _SetFeature
 ---------------------------------------------------------------------------------
 (10) _SetFeature                                         10    10      0     180
                                              0 COMMON    10    10      0
 ---------------------------------------------------------------------------------
 (10) _HIDInitEndpoints                                    2     2      0     431
                                              3 COMMON     2     2      0
                           i1___bmul
 ---------------------------------------------------------------------------------
 (11) i1___bmul                                            3     2      1      81
                                              0 COMMON     3     2      1
 ---------------------------------------------------------------------------------
 (10) _GetStatus                                           9     9      0     113
                                              0 COMMON     9     9      0
 ---------------------------------------------------------------------------------
 (10) _GetDescriptor                                       5     5      0     112
                                              0 COMMON     5     5      0
 ---------------------------------------------------------------------------------
 (9) _ProcessHIDRequest                                    3     3      0     222
                                              0 COMMON     3     3      0
 ---------------------------------------------------------------------------------
 (9) _InDataStage                                          4     4      0     160
                                              0 COMMON     4     4      0
 ---------------------------------------------------------------------------------
 (8) _OutDataStage                                         5     5      0      69
                                              0 COMMON     5     5      0
 ---------------------------------------------------------------------------------
 (7) _BusReset                                             0     0      0       0
                  _WaitForSetupStage
 ---------------------------------------------------------------------------------
 (8) _WaitForSetupStage                                    0     0      0       0
 ---------------------------------------------------------------------------------
 Estimated maximum stack depth 11
 ---------------------------------------------------------------------------------

 Call Graph Graphs:

 _main (ROOT)
   _EnableInterrupts
   _EnableUSBModule
   _InitializeSystem
   _InitializeUSB
     _ResetPPBuffers
   _ProcessIO
     _CheckUsb
       _IsUsbDataAvaialble
       _ProcessIncommingData
       _ReArmInterface
         ___bmul
     _HIDSend
       ___bmul
     _PrepareTxBuffer

 _ISRCode (ROOT)
   _ProcessUSBTransactions
     _BusReset
       _WaitForSetupStage
     _ProcessControlTransfer
       _InDataStage
       _OutDataStage
       _SetupStage
         _InDataStage
         _ProcessHIDRequest
         _ProcessStandardRequest
           _GetDescriptor
           _GetStatus
           _HIDInitEndpoints
             i1___bmul
           _SetFeature
       _WaitForSetupStage
     _Stall
       _WaitForSetupStage
     _StartOfFrame
     _Suspend
     _UnSuspend

Address spaces:
Name               Size   Autos  Total    Usage
BITCOMMON           14      0       0      0.0%
BITBANK0            64      0       0      0.0%
BITBANK1            80      0       0      0.0%
BITBANK2            80      0       0      0.0%
BITBANK3            80      0       0      0.0%
BITBANK4            80      0       0      0.0%
BITBANK5            80      0       0      0.0%
BITBANK6            80      0       0      0.0%
BITBANK7            80      0       0      0.0%
BITBANK8            80      0       0      0.0%
BITBANK9            80      0       0      0.0%
BITBANK10           80      0       0      0.0%
BITBANK11           80      0       0      0.0%
BITBANK12           48      0       0      0.0%
BIGRAM            1008      0       0      0.0%
COMMON              14     13      14    100.0%
BANK0               64      5      63     98.4%
BANK1               80      0       0      0.0%
BANK2               80      0       0      0.0%
BANK3               80      0       0      0.0%
BANK4               80      0       0      0.0%
BANK5               80      0       0      0.0%
BANK6               80      0       0      0.0%
BANK7               80      0       0      0.0%
BANK8               80      0       0      0.0%
BANK9               80      0       0      0.0%
BANK10              80      0       0      0.0%
BANK11              80      0       0      0.0%
BANK12              48      0       0      0.0%
STACK                0      0       0      0.0%
DATA                 0      0      77      0.0%


Microchip Technology PIC Macro Assembler V3.00 build 20241204225717 
Symbol Table                                                                                   Sun Jun 29 11:06:12 2025

                  ___bmul@product 006B            __end_of_ResetPPBuffers 077E                                l81 0683  
                              l91 063F                                l84 0757                                l94 0781  
                              l98 0727        __end_of_IsUsbDataAvaialble 0663          __end_of_EnableInterrupts 0758  
                             l105 0595                               l212 0517                               l205 0662  
                             l216 04C9                               l371 077D                               l507 06DF  
                             l381 06CB                               l374 0737                               l369 077A  
                             l378 06C1                               _UIE 0E92                               _UIR 0E90  
                             wreg 0009                      _transferType 0034                   __end_of_HIDSend 04CA  
                            l2021 0657                              l2013 0642                              l2015 0647  
                            l2111 0617                              l2121 0620                              l2019 0649  
                            l2131 063A                              l2123 0626                              l2301 066D  
                            l2133 063E                              l2125 062D                              l2117 0619  
                            l2311 0677                              l2303 0670                              l2127 0631  
                            l2119 061E                              l2321 0750                              l2313 0679  
                            l2305 0671                              l2129 0632                              l2315 067A  
                            l2307 0673                              l2317 067C                              l2309 0675  
                            l2319 067E                              l2351 0735                              l2361 06C5  
                            l2353 06B7                              l2345 0728                              l2363 06C7  
                            l2355 06BC                              l2347 072B                              l2365 06C8  
                            l2357 06BE                              l2349 0732                              l2541 0723  
                            l2367 06C9                              l2359 06BF                              l2295 0663  
                            l2471 06D5                              l2551 04B0                              l2543 047D  
                            l2297 0668                              l2473 06D7                              l2465 06CE  
                            l2481 04DA                              l2537 0717                              l2553 04BD  
                            l2299 066A                              l2475 06DE                              l2467 06CF  
                            l2483 04EF                              l2539 0720                              l2547 048C  
                            l2469 06D3                              l2485 04FE                              l2549 04A1  
                            l2487 050B                              l2479 04CC                              l2671 0557  
                            l2681 0575                              l2673 055D                              l2691 058C  
                            l2683 0578                              l2675 0562                              l2685 057C  
                            l2677 0565                              l2687 0580                              l2679 056D  
                            l2689 0584                              l2697 0705                              l2699 0711  
                            u2100 0626                              u2101 0625                              u2110 062D  
                            u2111 062C                              u2120 0631                              u2121 0630  
                            u2130 063A                              u2131 0639                              u2140 063E  
                            u3005 04B3                              u2141 063D                              u3015 04C0  
                            u3300 055D                              u3301 055C                              u3310 0562  
                            u3311 0561                              u3320 056D                              u3321 056C  
                            u2610 06BC                              u3330 0575                              u2611 06BB  
                            u3331 0574                              u2620 06C5                              u3340 058A  
                            u2621 06C4                              u3341 0587                              u3360 0593  
                            u3361 0590                              u3354 058C                              u2820 06D3  
                            u2821 06D2                              u1950 0647                              u2830 06DE  
                            u3374 0595                              u1951 0646                              u2831 06DD  
                            u2905 050E                              u1970 0657                              u2850 04DA  
                            u1971 0656                              u2851 04D9                              u2940 0720  
                            u1965 064C                              u2845 04CF                              u2941 071F  
                            u2880 04FE                              u2960 048B                              u1985 065A  
                            u2881 04FD                              u2865 04DD                              u2961 048A  
                            u2875 04F3                              u2955 0480                              u2990 04B0  
                            u2895 0501                              u2991 04AF                              u2975 048F  
                            u2985 04A5                              i1l78 000E                              _UCFG 0E91  
                            _UEP0 0E98                              _UEIE 0E97                              _UEIR 0E93  
                            _UCON 0E8E                   __end_of_ISRCode 0010                              _main 0705  
           __end_of_GetDescriptor 0423                              fsr0h 0005                              fsr1h 0007  
                            indf0 0000                              fsr0l 0004                              indf1 0001  
                            fsr1l 0006                              btemp 007E              _CurrentConfiguration 0063  
                            start 0010                 ___bmul@multiplier 006C                 ??_EnableUSBModule 006A  
                _HIDInitEndpoints 01C0                   ?_ResetPPBuffers 0070     IsUsbDataAvaialble@InterfaceNo 006B  
                           ?_main 0070                   __end_of_Suspend 0776                             i1l223 022D  
                           i1l400 069E                             i1l330 0300                             i1l403 014A  
                           i1l228 003E                             i1l412 01AF                             i1l404 01BF  
                           i1l229 00BC                             i1l261 0422                             i1l341 046B  
                           i1l254 0422                             i1l406 0161                             i1l336 05C3  
                           i1l344 047A                             i1l274 03C4                             i1l362 0360  
                           i1l354 032B                             i1l347 074F                             i1l507 06F2  
                           i1l339 0444                             i1l284 027F                             i1l293 013F  
                           i1l366 0362                             i1l391 0743                             i1l384 076F  
                           i1l289 029A                             i1l394 0775                             i1l299 00F0  
                           i1l387 0780                             i1l397 0690                             i1l398 068F  
                           i1l399 0694                             _UADDR 0E96                             _USTAT 0E8F  
              HIDSend@InterfaceNo 006E                     _Button1Status 003F                     _Button2Status 003E  
                     _InDataStage 029B                             _Stall 0738                             _inPtr 0035  
        ??_ProcessUSBTransactions 007D                  __end_ofi1___bmul 06F3                       _HidIdleRate 0062  
                           status 0003                             wtemp0 007E                  __end_of_CheckUsb 0728  
                 __initialization 0012                  __end_of_BusReset 069F                      __end_of_main 0717  
        ??_ProcessControlTransfer 007B                       _DeviceState 007D                            ??_main 006F  
                     _HidProtocol 0061                 __end_of_HIDReport 0557                        _Interfaces 0020  
                       ??_HIDSend 006D                         ??_ISRCode 007D                        _SetFeature 022E  
                   _InitializeUSB 0728                            ?_Stall 0070                            _ACTCON 039B  
                          _ANSELA 018C                            _ANSELC 018E                            i1l2103 0744  
                          i1l2105 0746                            i1l2201 0687                            i1l2041 05A4  
                          i1l2107 0748                            i1l2211 069A                            i1l2203 0689  
                          i1l2051 05B5                            i1l2043 05A6                            i1l2109 074C  
                          i1l2213 069B                            i1l2205 068C                            i1l2045 05A9  
                          i1l2053 05B9                            i1l2215 069C                            i1l2207 0695  
                          i1l2047 05B1                            i1l2039 0596                            i1l2209 0698  
                          i1l2049 05B3                            i1l2411 00DA                            i1l2403 00C7  
                          i1l2421 00ED                            i1l2413 00DE                            i1l2405 00CD  
                          i1l2501 0430                            i1l1461 0772                            i1l1445 076A  
                          i1l1711 03D5                            i1l2431 0104                            i1l2423 00F2  
                          i1l2415 00E4                            i1l2407 00D1                            i1l2511 0456  
                          i1l2503 0433                            i1l2191 0738                            i1l1463 0774  
                          i1l1447 076D                            i1l1721 03EA                            i1l1713 03D7  
                          i1l1705 03C5                            i1l1801 0251                            i1l2441 011A  
                          i1l2433 0106                            i1l2417 00E6                            i1l2425 00F6  
                          i1l2409 00D4                            i1l2521 0464                            i1l2513 0459  
                          i1l2505 0439                            i1l2193 073D                            i1l1449 077E  
                          i1l2601 014F                            i1l1731 0401                            i1l1715 03DF  
                          i1l1707 03CC                            i1l1811 027D                            i1l1803 0257  
                          i1l2451 0129                            i1l2443 011E                            i1l2435 010B  
                          i1l2427 00FC                            i1l2419 00E8                            i1l2531 0472  
                          i1l2523 0468                            i1l2515 045C                            i1l2507 0448  
                          i1l2195 0740                            i1l1459 0770                            i1l2611 015E  
                          i1l2603 0153                            i1l1821 002F                            i1l1733 0406  
                          i1l1725 03F3                            i1l1717 03E2                            i1l1709 03D0  
                          i1l1741 0367                            i1l1813 0285                            i1l1805 025C  
                          i1l2461 013F                            i1l2445 0124                            i1l2453 012F  
                          i1l2437 010F                            i1l2429 00FE                            i1l2533 0476  
                          i1l2525 046D                            i1l2517 045E                            i1l2509 0452  
                          i1l2197 0742                            i1l2621 016F                            i1l2605 0156  
                          i1l2199 0684                            i1l1831 0049                            i1l1823 0038  
                          i1l1735 0416                            i1l1727 03F9                            i1l1719 03E8  
                          i1l1751 0375                            i1l1743 0368                            i1l1671 06E1  
                          i1l2391 021A                            i1l2383 01C4                            i1l1815 028B  
                          i1l1807 0261                            i1l2455 0135                            i1l2447 0126  
                          i1l2439 0114                            i1l2527 046E                            i1l2519 0462  
                          i1l2535 0478                            i1l2631 0181                            i1l2623 0173  
                          i1l2615 0165                            i1l2607 0159                            i1l1841 0062  
                          i1l1833 004F                            i1l1825 003F                            i1l1729 03FB  
                          i1l1761 0385                            i1l1753 0376                            i1l1745 0369  
                          i1l1681 06F1                            i1l1673 06E2                            i1l2393 0226  
                          i1l2385 01CB                            i1l2377 01C0                            i1l1817 0290  
                          i1l1809 0263                            i1l2457 0138                            i1l2449 0127  
                          i1l2529 0470                            i1l2561 031B                            i1l2641 0193  
                          i1l2633 0185                            i1l2625 0177                            i1l2617 0169  
                          i1l2609 015D                            i1l1843 0064                            i1l1835 0051  
                          i1l1851 006D                            i1l1827 0041                            i1l1771 03AD  
                          i1l1763 038B                            i1l1755 037B                            i1l1747 036E  
                          i1l1739 0363                            i1l1675 06E6                            i1l2395 0228  
                          i1l2387 01E0                            i1l1819 0295                            i1l2491 0428  
                          i1l2563 0320                            i1l2571 0332                            i1l2555 0301  
                          i1l2651 01A2                            i1l2643 0196                            i1l2635 0188  
                          i1l2627 017A                            i1l2619 016C                            i1l1861 0083  
                          i1l1837 0059                            i1l1829 0047                            i1l1781 03C3  
                          i1l1773 03AF                            i1l1765 0391                            i1l1749 0370  
                          i1l1757 037D                            i1l1677 06E8                            i1l2389 0203  
                          i1l2397 00BD                            i1l2493 0429                            i1l2581 034C  
                          i1l2573 0338                            i1l2565 0323                            i1l2557 0307  
                          i1l2653 01A3                            i1l2645 0199                            i1l2637 018B  
                          i1l2629 017D                            i1l1871 0098                            i1l1863 0088  
                          i1l1855 0077                            i1l1847 006D                            i1l1839 005C  
                          i1l1775 03B6                            i1l1767 0393                            i1l1759 0382  
                          i1l1679 06EA                            i1l1791 023E                            i1l1783 022E  
                          i1l2399 00C0                            i1l2495 042A                            i1l2575 033D  
                          i1l2583 034E                            i1l2567 0328                            i1l2559 0317  
                          i1l2663 01B3                            i1l2647 019D                            i1l2655 01A5  
                          i1l2639 018F                            i1l1961 02A5                            i1l1881 00AB  
                          i1l1873 009E                            i1l1865 008E                            i1l1769 03A8  
                          i1l1777 03B8                            i1l1793 0240                            i1l1785 0232  
                          i1l2497 042B                            i1l2489 0423                            i1l2585 0355  
                          i1l2577 0343                            i1l2569 032E                            i1l2665 01B7  
                          i1l2657 01AB                            i1l2649 01A1                            i1l2593 0140  
                          i1l1971 02B9                            i1l1963 02AA                            i1l1875 00A0  
                          i1l1867 0090                            i1l1859 007D                            i1l1779 03BD  
                          i1l1795 0246                            i1l1787 0234                            i1l2499 042D  
                          i1l2587 0358                            i1l2579 0347                            i1l2667 01BA  
                          i1l2659 01AC                            i1l2595 0145                            i1l1981 02D5  
                          i1l1973 02C1                            i1l1965 02AE                            i1l1885 00B2  
                          i1l1877 00A3                            i1l1869 0096                            i1l1797 0249  
                          i1l1789 0239                            i1l2589 035D                            i1l2669 01BD  
                          i1l2597 0147                            i1l2693 0006                            i1l1991 02EF  
                          i1l1983 02D7                            i1l1975 02C6                            i1l1967 02B0  
                          i1l1959 029B                            i1l1887 00B8                            i1l1879 00A9  
                          i1l1799 024B                            i1l2695 000B                            i1l1993 02F1  
                          i1l1977 02C8                            i1l1985 02D9                            i1l1969 02B5  
                          i1l1889 00BA                            i1l1995 02F3                            i1l1979 02D1  
                          i1l1987 02E5                            i1l1989 02E7                            i1l1997 02F5  
                          u206_20 05C3                            u150_20 037B                            u310_20 034C  
                          u302_20 0307                            u206_21 05C2                            u150_21 037A  
                          u310_21 034B                            u302_21 0306                            u206_25 05BF  
                          u143_20 03CC                            u151_20 0382                            u135_20 06E6  
                          u311_20 0355                            u143_21 03CB                            u151_21 0381  
                          u135_21 06E5                            u311_21 0354                            u303_25 030B  
                          u144_20 03D5                            u152_20 038B                            u136_20 06F1  
                          u160_20 025C                            u312_20 035D                            u304_20 0317  
                          u320_20 0177                            u144_21 03D4                            u152_21 038A  
                          u136_21 06F0                            u160_21 025B                            u312_21 035C  
                          u304_21 0316                            u320_21 0176                            u145_20 03E8  
                          u153_20 03AD                            u161_20 0261                            u305_20 0320  
                          u321_20 0181                            u313_20 0145                            u145_21 03E7  
                          u153_21 03AC                            u161_21 0260                            u305_21 031F  
                          u321_21 0180                            u313_21 0144                            u170_20 0076  
                          u146_20 03F9                            u154_20 03B6                            u162_20 027D  
                          u306_20 0328                            u234_20 073D                            u322_20 0185  
                          u314_20 014F                            u170_21 0075                            u146_21 03F8  
                          u154_21 03B5                            u162_21 027C                            u306_21 0327  
                          u234_21 073C                            u322_21 0184                            u314_21 014E  
                          u235_20 0694                            u171_20 007C                            u147_20 0401  
                          u155_20 03BD                            u163_20 0285                            u307_20 0338  
                          u323_20 018F                            u315_20 0153                            u235_21 0693  
                          u171_21 007B                            u147_21 0400                            u155_21 03BC  
                          u163_21 0284                            u307_21 0337                            u323_21 018E  
                          u315_21 0152                            u172_20 0083                            u148_20 036E  
                          u164_20 0290                            u156_20 0239                            u308_20 033D  
                          u324_20 0193                            u316_20 015D                            u172_21 0082  
                          u148_21 036D                            u164_21 028F                            u156_21 0238  
                          u308_21 033C                            u324_21 0192                            u316_21 015C  
                          u173_20 008E                            u165_20 0038                            u149_20 0375  
                          u157_20 023E                            u309_20 0343                            u325_20 019D  
                          u317_20 0165                            u173_21 008D                            u165_21 0037  
                          u149_21 0374                            u157_21 023D                            u309_21 0342  
                          u325_21 019C                            u317_21 0164                            u190_20 02C6  
                          u174_20 009E                            u166_20 003D                            u158_20 0246  
                          u270_20 00C6                            u326_20 01A1                            u318_20 0169  
                          u190_21 02C5                            u174_21 009D                            u166_21 003C  
                          u158_21 0245                            u270_21 00C5                            u326_21 01A0  
                          u318_21 0168                            u191_20 02E4                            u175_20 00A9  
                          u167_20 0047                            u159_20 0251                            u271_20 00CD  
                          u327_20 01AB                            u319_20 0173                            u191_21 02E3  
                          u175_21 00A8                            u167_21 0046                            u159_21 0250  
                          u271_21 00CC                            u327_21 01AA                            u319_21 0172  
                          u191_25 02E0                            u192_20 0300                            u176_20 00B8  
                          u168_20 004F                            u280_20 0135                            u272_20 00DA  
                          u328_20 01B3                            u192_21 02FF                            u176_21 00B7  
                          u168_21 004E                            u280_21 0134                            u272_21 00D9  
                          u328_21 01B2                            u192_25 02FC                            u264_25 01CE  
                          u169_20 0062                            u281_20 013E                            u273_20 00E4  
                          u329_20 01B7                            u169_21 0061                            u281_21 013D  
                          u273_21 00E3                            u329_21 01B6                            u265_25 01EC  
                          u274_20 00ED                            u338_20 000B                            u274_21 00EC  
                          u338_21 000A                            u266_25 01FA                            u275_20 00FC  
                          u291_20 0439                            u275_21 00FB                            u291_21 0438  
                          u267_25 020F                            u276_20 010B                            u292_20 0448  
                          u276_21 010A                            u292_21 0447                            u268_25 021D  
                          u189_20 02A5                            u269_20 022D                            u277_20 0114  
                          u293_20 0452                            u189_21 02A4                            u269_21 022C  
                          u277_21 0113                            u293_21 0451                            u293_25 044E  
                          u278_20 011A                            u278_21 0119                            u279_20 0124  
                          u279_21 0123                            _OSCCON 0099         ProcessHIDRequest@bRequest 0072  
                          ___bmul 06CC            OutDataStage@bufferSize 0073                         ??_Suspend 0070  
                          _wCount 0030                        _SetupStage 0423                            _outPtr 0036  
                  ?_InitializeUSB 0070           ?_ProcessStandardRequest 0070      GetDescriptor@descriptorIndex 0073  
                  _RequestHandled 0038           __end_of__initialization 002B             SetFeature@endpointDir 0079  
             ___bmul@multiplicand 006A                 __end_of_GetStatus 03C5             SetFeature@endpointNum 0078  
                  __pcstackCOMMON 0070                     __end_of_Stall 0744                      __pidataBANK0 0758  
                       ?i1___bmul 0070                 ?_EnableInterrupts 0070                         ?_CheckUsb 0070  
                  _OPTION_REGbits 0095                ??_EnableInterrupts 006A      __end_of_ProcessIncommingData 0782  
  __end_of_ProcessStandardRequest 0140                       ?_SetFeature 0070                           ??_Stall 0070  
                i1___bmul@product 0071                _IsUsbDataAvaialble 0640          __end_of_HIDInitEndpoints 022E  
                       ?_BusReset 0070                        __pbssBANK0 0030                   _EnableUSBModule 06B7  
__end_of_StringDescriptorPointers 0764                     ?_OutDataStage 0070               ?_IsUsbDataAvaialble 0070  
               __end_of_UnSuspend 0770                 __end_of_ProcessIO 0596                  ??_ResetPPBuffers 006A  
           InDataStage@bufferSize 0072                        __pmaintext 0705                           ?___bmul 006A  
          _ProcessUSBTransactions 0140                        __pintentry 0004                       ?_SetupStage 0070  
                      ??i1___bmul 0071                       _SelfPowered 003B                  _InitializeSystem 0663  
            ??_IsUsbDataAvaialble 006A                   ??_InitializeUSB 006A                           _HIDSend 047B  
                      ??_CheckUsb 006F                      ?_InDataStage 0070                           _ISRCode 0004  
                         _OSCTUNE 0098                           _UIEbits 0E92                        ??_BusReset 0070  
                         _UIRbits 0E90            _ProcessControlTransfer 0301                    ??_OutDataStage 0070  
               ??_PrepareTxBuffer 006A                           _Buffers 0064                           _Suspend 0770  
                   OutDataStage@i 0071                           __ptext1 0557                           __ptext2 0617  
                         __ptext3 047B                           __ptext4 0717                           __ptext5 04CA  
                         __ptext6 06CC                           __ptext7 0781                           __ptext8 0640  
                         __ptext9 0728                       _SetupPacket 0040               i1___bmul@multiplier 0072  
         __end_of_EnableUSBModule 06CC                         _HIDReport 0518                           clrloop0 0765  
            end_of_initialization 002B              _ProcessIncommingData 0781         ReArmInterface@InterfaceNo 006E  
                   ?_StartOfFrame 0070                         _PORTAbits 000C                         _TRISAbits 008C  
                       _TRISCbits 008E                    _ReArmInterface 04CA     ProcessStandardRequest@request 007A  
                       _ROMoutPtr 0032                     _GetDescriptor 03C5             ?_ProcessIncommingData 0070  
                  ??_StartOfFrame 0070                      InDataStage@i 0071              GetStatus@endpointDir 0077  
            GetStatus@endpointNum 0076                    __end_of___bmul 06E0                         _GetStatus 0363  
 __end_of_ConfigurationDescriptor 0617              __end_of_OutDataStage 05C4            __end_of_ReArmInterface 0518  
               _StringDescriptor0 0776                 _StringDescriptor1 069F                 _StringDescriptor2 05C4  
             start_initialization 0012                      ??_SetFeature 0070                  ?_EnableUSBModule 0070  
               ?_HIDInitEndpoints 0070                     _DeviceAddress 003C                ??_HIDInitEndpoints 0073  
                  ?_GetDescriptor 0070          __end_of_InitializeSystem 0684           ?_ProcessUSBTransactions 0070  
                        ??___bmul 006B                         _UnSuspend 076A                __end_of_SetFeature 029B  
                       _ProcessIO 0557                        ?_GetStatus 0070                       __pdataBANK0 0064  
                    ??_SetupStage 007B                 HIDInitEndpoints@i 0074         __end_of_StringDescriptor0 077A  
       __end_of_StringDescriptor1 06B7         __end_of_StringDescriptor2 05EE       GetDescriptor@descriptorType 0074  
                        ?_HIDSend 0070                   ?_ReArmInterface 0070                   _PrepareTxBuffer 0617  
                     __pbssCOMMON 007D                         ___latbits 0002                     __pcstackBANK0 006A  
                        ?_ISRCode 0070           ?_ProcessControlTransfer 0070    __end_of_ProcessUSBTransactions 01C0  
          ??_ProcessIncommingData 006A                __end_of_SetupStage 047B                  PrepareTxBuffer@i 006A  
               _ProcessHIDRequest 002F                        ?_UnSuspend 0070                        ?_ProcessIO 0070  
                        ?_Suspend 0070                ?_ProcessHIDRequest 0070               ??_ProcessHIDRequest 0070  
  __end_of_ProcessControlTransfer 0363             __end_of_InitializeUSB 0738              __end_of_StartOfFrame 0781  
                 ??_GetDescriptor 0070                          _LATCbits 010E                         clear_ram0 0764  
                        _PIE2bits 0092             i1___bmul@multiplicand 0070                  _DeviceDescriptor 06F3  
       __end_of_ProcessHIDRequest 00BD                          _PIR2bits 0012                       _HIDRxBuffer 0059  
                        _UEP0bits 0E98                       _HIDTxBuffer 0051                          _UCONbits 0E8E  
                     ??_GetStatus 0070           __end_of_PrepareTxBuffer 0640          ??_ProcessStandardRequest 007A  
                        i1___bmul 06E0                          _WPUAbits 020C                          _CheckUsb 0717  
                    _RemoteWakeup 003D                          _HidRxLen 0037                          _BusReset 0684  
                _EnableInterrupts 0750                      _OutDataStage 0596             _ControlTransferBuffer 0049  
               _CtrlTransferStage 003A                       ??_UnSuspend 0070                       ??_ProcessIO 006F  
                   _EndpointFlags 0E99   ProcessHIDRequest@descriptorType 0071                 _WaitForSetupStage 0744  
              ?_WaitForSetupStage 0070                          __ptext10 077A                          __ptext11 0663  
                        __ptext20 0301                          __ptext12 06B7                          __ptext21 0423  
                        __ptext13 0750                          __ptext30 0596                          __ptext22 00BD  
                        __ptext31 0684                          __ptext23 022E                          __ptext15 0140  
                        __ptext32 0744                          __ptext24 01C0                          __ptext16 076A  
                        __ptext25 06E0                          __ptext17 0770                          __ptext26 0363  
                        __ptext18 077E                          __ptext27 03C5                          __ptext19 0738  
                        __ptext28 002F                          __ptext29 029B               ??_WaitForSetupStage 0070  
             SetFeature@recipient 0076                 ?_InitializeSystem 0070                ??_InitializeSystem 006A  
                        int$flags 007E          _StringDescriptorPointers 075E         __end_of_WaitForSetupStage 0750  
                ??_ReArmInterface 006D                  ?_PrepareTxBuffer 0070                        _INTCONbits 000B  
                   ??_InDataStage 0070         ProcessControlTransfer@PID 007C                          intlevel1 0000  
              GetStatus@recipient 0078           _ConfigurationDescriptor 05EE                      _StartOfFrame 077E  
               SetFeature@feature 0077                     __pstringtext1 075E                     __pstringtext2 0518  
                   __pstringtext3 05C4                     __pstringtext4 05EE                     __pstringtext5 069F  
                   __pstringtext6 06F3                     __pstringtext7 0776                    _ResetPPBuffers 077A  
                  _HIDPostProcess 0039                        _OPTION_REG 0095          __end_of_DeviceDescriptor 0705  
          _ProcessStandardRequest 00BD               __end_of_InDataStage 0301  
